(dp0
c__builtin__
frozenset
p1
((lp2
S'Qd'
p3
aS'5s'
p4
atp5
Rp6
F0.502
sg1
((lp7
S'5s'
p8
aS'2c'
p9
atp10
Rp11
F0.33899999999999997
sg1
((lp12
S'7s'
p13
aS'9d'
p14
atp15
Rp16
F0.467
sg1
((lp17
S'Ad'
p18
aS'7h'
p19
atp20
Rp21
F0.591
sg1
((lp22
S'4c'
p23
aS'5s'
p24
atp25
Rp26
F0.379
sg1
((lp27
S'8c'
p28
aS'8d'
p29
atp30
Rp31
F0.691
sg1
((lp32
S'Ks'
p33
aS'5h'
p34
atp35
Rp36
F0.5329999999999999
sg1
((lp37
S'9h'
p38
aS'5c'
p39
atp40
Rp41
F0.429
sg1
((lp42
S'3s'
p43
aS'Jc'
p44
atp45
Rp46
F0.45
sg1
((lp47
S'6h'
p48
aS'7s'
p49
atp50
Rp51
F0.42700000000000005
sg1
((lp52
S'9c'
p53
aS'Kh'
p54
atp55
Rp56
F0.58
sg1
((lp57
S'Qh'
p58
aS'3d'
p59
atp60
Rp61
F0.479
sg1
((lp62
S'Js'
p63
aS'3d'
p64
atp65
Rp66
F0.45
sg1
((lp67
S'7s'
p68
aS'2h'
p69
atp70
Rp71
F0.34600000000000003
sg1
((lp72
S'2h'
p73
aS'Ad'
p74
atp75
Rp76
F0.546
sg1
((lp77
S'8s'
p78
aS'5d'
p79
atp80
Rp81
F0.41700000000000004
sg1
((lp82
S'4h'
p83
aS'2s'
p84
atp85
Rp86
F0.325
sg1
((lp87
S'6h'
p88
aS'8s'
p89
atp90
Rp91
F0.436
sg1
((lp92
S'5d'
p93
aS'4c'
p94
atp95
Rp96
F0.379
sg1
((lp97
S'Jd'
p98
aS'Jh'
p99
atp100
Rp101
F0.775
sg1
((lp102
S'As'
p103
aS'Ad'
p104
atp105
Rp106
F0.853
sg1
((lp107
S'8s'
p108
aS'8h'
p109
atp110
Rp111
F0.691
sg1
((lp112
S'Ah'
p113
aS'Ts'
p114
atp115
Rp116
F0.629
sg1
((lp117
S'Jd'
p118
aS'5h'
p119
atp120
Rp121
F0.47100000000000003
sg1
((lp122
S'Tc'
p123
aS'Ts'
p124
atp125
Rp126
F0.7509999999999999
sg1
((lp127
S'8c'
p128
aS'5d'
p129
atp130
Rp131
F0.41700000000000004
sg1
((lp132
S'Ks'
p133
aS'6s'
p134
atp135
Rp136
F0.568
sg1
((lp137
S'3s'
p138
aS'4h'
p139
atp140
Rp141
F0.344
sg1
((lp142
S'9h'
p143
aS'Ts'
p144
atp145
Rp146
F0.517
sg1
((lp147
S'Qh'
p148
aS'6d'
p149
atp150
Rp151
F0.511
sg1
((lp152
S'Td'
p153
aS'Ts'
p154
atp155
Rp156
F0.7509999999999999
sg1
((lp157
S'2d'
p158
aS'Jd'
p159
atp160
Rp161
F0.47100000000000003
sg1
((lp162
S'Ks'
p163
aS'5d'
p164
atp165
Rp166
F0.5329999999999999
sg1
((lp167
S'Ks'
p168
aS'Kd'
p169
atp170
Rp171
F0.8240000000000001
sg1
((lp172
S'9c'
p173
aS'9s'
p174
atp175
Rp176
F0.721
sg1
((lp177
S'4d'
p178
aS'5c'
p179
atp180
Rp181
F0.379
sg1
((lp182
S'6s'
p183
aS'3h'
p184
atp185
Rp186
F0.359
sg1
((lp187
S'8h'
p188
aS'7d'
p189
atp190
Rp191
F0.455
sg1
((lp192
S'Ad'
p193
aS'2s'
p194
atp195
Rp196
F0.546
sg1
((lp197
S'Kc'
p198
aS'Ts'
p199
atp200
Rp201
F0.599
sg1
((lp202
S'Qh'
p203
aS'Js'
p204
atp205
Rp206
F0.5820000000000001
sg1
((lp207
S'8c'
p208
aS'8h'
p209
atp210
Rp211
F0.691
sg1
((lp212
S'3c'
p213
aS'2h'
p214
atp215
Rp216
F0.312
sg1
((lp217
S'7c'
p218
aS'5s'
p219
atp220
Rp221
F0.408
sg1
((lp222
S'8h'
p223
aS'Ts'
p224
atp225
Rp226
F0.5
sg1
((lp227
S'6h'
p228
aS'3c'
p229
atp230
Rp231
F0.359
sg1
((lp232
S'5d'
p233
aS'6s'
p234
atp235
Rp236
F0.401
sg1
((lp237
S'3h'
p238
aS'7s'
p239
atp240
Rp241
F0.366
sg1
((lp242
S'6s'
p243
aS'Kd'
p244
atp245
Rp246
F0.5429999999999999
sg1
((lp247
S'6s'
p248
aS'4s'
p249
atp250
Rp251
F0.414
sg1
((lp252
S'Ks'
p253
aS'Qh'
p254
atp255
Rp256
F0.614
sg1
((lp257
S'4d'
p258
aS'8d'
p259
atp260
Rp261
F0.42700000000000005
sg1
((lp262
S'7d'
p263
aS'5c'
p264
atp265
Rp266
F0.408
sg1
((lp267
S'Jh'
p268
aS'5s'
p269
atp270
Rp271
F0.47100000000000003
sg1
((lp272
S'Ac'
p273
aS'4c'
p274
atp275
Rp276
F0.589
sg1
((lp277
S'Qh'
p278
aS'5c'
p279
atp280
Rp281
F0.502
sg1
((lp282
S'8s'
p283
aS'8d'
p284
atp285
Rp286
F0.691
sg1
((lp287
S'6c'
p288
aS'2s'
p289
atp290
Rp291
F0.34
sg1
((lp292
S'Qs'
p293
aS'5h'
p294
atp295
Rp296
F0.502
sg1
((lp297
S'6s'
p298
aS'Kh'
p299
atp300
Rp301
F0.5429999999999999
sg1
((lp302
S'8h'
p303
aS'Jc'
p304
atp305
Rp306
F0.517
sg1
((lp307
S'Ts'
p308
aS'5c'
p309
atp310
Rp311
F0.442
sg1
((lp312
S'Ah'
p313
aS'2h'
p314
atp315
Rp316
F0.57
sg1
((lp317
S'5d'
p318
aS'9c'
p319
atp320
Rp321
F0.429
sg1
((lp322
S'6h'
p323
aS'Ah'
p324
atp325
Rp326
F0.6
sg1
((lp327
S'9s'
p328
aS'4d'
p329
atp330
Rp331
F0.40700000000000003
sg1
((lp332
S'2d'
p333
aS'9d'
p334
atp335
Rp336
F0.423
sg1
((lp337
S'6s'
p338
aS'3d'
p339
atp340
Rp341
F0.359
sg1
((lp342
S'5d'
p343
aS'9s'
p344
atp345
Rp346
F0.429
sg1
((lp347
S'Jd'
p348
aS'Tc'
p349
atp350
Rp351
F0.5539999999999999
sg1
((lp352
S'3h'
p353
aS'6d'
p354
atp355
Rp356
F0.359
sg1
((lp357
S'4d'
p358
aS'Qd'
p359
atp360
Rp361
F0.517
sg1
((lp362
S'9d'
p363
aS'7h'
p364
atp365
Rp366
F0.467
sg1
((lp367
S'9s'
p368
aS'3d'
p369
atp370
Rp371
F0.39899999999999997
sg1
((lp372
S'As'
p373
aS'7d'
p374
atp375
Rp376
F0.591
sg1
((lp377
S'Td'
p378
aS'Tc'
p379
atp380
Rp381
F0.7509999999999999
sg1
((lp382
S'Tc'
p383
aS'Th'
p384
atp385
Rp386
F0.7509999999999999
sg1
((lp387
S'6h'
p388
aS'Th'
p389
atp390
Rp391
F0.49200000000000005
sg1
((lp392
S'3c'
p393
aS'5c'
p394
atp395
Rp396
F0.39299999999999996
sg1
((lp397
S'3s'
p398
aS'Ac'
p399
atp400
Rp401
F0.556
sg1
((lp402
S'4c'
p403
aS'7h'
p404
atp405
Rp406
F0.386
sg1
((lp407
S'8h'
p408
aS'Jh'
p409
atp410
Rp411
F0.542
sg1
((lp412
S'9h'
p413
aS'4s'
p414
atp415
Rp416
F0.40700000000000003
sg1
((lp417
S'Ah'
p418
aS'Js'
p419
atp420
Rp421
F0.636
sg1
((lp422
S'Td'
p423
aS'4s'
p424
atp425
Rp426
F0.434
sg1
((lp427
S'9h'
p428
aS'5d'
p429
atp430
Rp431
F0.429
sg1
((lp432
S'9c'
p433
aS'7c'
p434
atp435
Rp436
F0.495
sg1
((lp437
S'5d'
p438
aS'7h'
p439
atp440
Rp441
F0.408
sg1
((lp442
S'5c'
p443
aS'3d'
p444
atp445
Rp446
F0.358
sg1
((lp447
S'9h'
p448
aS'Js'
p449
atp450
Rp451
F0.534
sg1
((lp452
S'Kc'
p453
aS'7d'
p454
atp455
Rp456
F0.5539999999999999
sg1
((lp457
S'9c'
p458
aS'3d'
p459
atp460
Rp461
F0.39899999999999997
sg1
((lp462
S'Ks'
p463
aS'4h'
p464
atp465
Rp466
F0.521
sg1
((lp467
S'2d'
p468
aS'Jc'
p469
atp470
Rp471
F0.44
sg1
((lp472
S'Ac'
p473
aS'6s'
p474
atp475
Rp476
F0.578
sg1
((lp477
S'6h'
p478
aS'9s'
p479
atp480
Rp481
F0.449
sg1
((lp482
S'7s'
p483
aS'Kd'
p484
atp485
Rp486
F0.5539999999999999
sg1
((lp487
S'Tc'
p488
aS'5h'
p489
atp490
Rp491
F0.442
sg1
((lp492
S'9c'
p493
aS'Jh'
p494
atp495
Rp496
F0.534
sg1
((lp497
S'6c'
p498
aS'Jc'
p499
atp500
Rp501
F0.508
sg1
((lp502
S'9h'
p503
aS'6d'
p504
atp505
Rp506
F0.449
sg1
((lp507
S'Jh'
p508
aS'5c'
p509
atp510
Rp511
F0.47100000000000003
sg1
((lp512
S'Qs'
p513
aS'4s'
p514
atp515
Rp516
F0.517
sg1
((lp517
S'8c'
p518
aS'6c'
p519
atp520
Rp521
F0.465
sg1
((lp522
S'8c'
p523
aS'As'
p524
atp525
Rp526
F0.601
sg1
((lp527
S'9d'
p528
aS'2c'
p529
atp530
Rp531
F0.389
sg1
((lp532
S'Ah'
p533
aS'Jh'
p534
atp535
Rp536
F0.654
sg1
((lp537
S'3c'
p538
aS'2d'
p539
atp540
Rp541
F0.312
sg1
((lp542
S'5d'
p543
aS'Qc'
p544
atp545
Rp546
F0.502
sg1
((lp547
S'Kc'
p548
aS'5s'
p549
atp550
Rp551
F0.5329999999999999
sg1
((lp552
S'4h'
p553
aS'Jc'
p554
atp555
Rp556
F0.461
sg1
((lp557
S'Kc'
p558
aS'7s'
p559
atp560
Rp561
F0.5539999999999999
sg1
((lp562
S'2h'
p563
aS'Ts'
p564
atp565
Rp566
F0.415
sg1
((lp567
S'3s'
p568
aS'Qc'
p569
atp570
Rp571
F0.479
sg1
((lp572
S'3c'
p573
aS'2s'
p574
atp575
Rp576
F0.312
sg1
((lp577
S'3c'
p578
aS'Ah'
p579
atp580
Rp581
F0.556
sg1
((lp582
S'Td'
p583
aS'2h'
p584
atp585
Rp586
F0.415
sg1
((lp587
S'7d'
p588
aS'Kd'
p589
atp590
Rp591
F0.578
sg1
((lp592
S'Th'
p593
aS'Jc'
p594
atp595
Rp596
F0.5539999999999999
sg1
((lp597
S'Kc'
p598
aS'As'
p599
atp600
Rp601
F0.654
sg1
((lp602
S'Ac'
p603
aS'5h'
p604
atp605
Rp606
F0.5770000000000001
sg1
((lp607
S'Qs'
p608
aS'Td'
p609
atp610
Rp611
F0.574
sg1
((lp612
S'3s'
p613
aS'6c'
p614
atp615
Rp616
F0.359
sg1
((lp617
S'9s'
p618
aS'6d'
p619
atp620
Rp621
F0.449
sg1
((lp622
S'9h'
p623
aS'3d'
p624
atp625
Rp626
F0.39899999999999997
sg1
((lp627
S'As'
p628
aS'2c'
p629
atp630
Rp631
F0.546
sg1
((lp632
S'5c'
p633
aS'Js'
p634
atp635
Rp636
F0.47100000000000003
sg1
((lp637
S'Qs'
p638
aS'2c'
p639
atp640
Rp641
F0.47
sg1
((lp642
S'As'
p643
aS'5s'
p644
atp645
Rp646
F0.599
sg1
((lp647
S'2s'
p648
aS'2c'
p649
atp650
Rp651
F0.503
sg1
((lp652
S'Jd'
p653
aS'9s'
p654
atp655
Rp656
F0.534
sg1
((lp657
S'7s'
p658
aS'6d'
p659
atp660
Rp661
F0.42700000000000005
sg1
((lp662
S'7d'
p663
aS'4c'
p664
atp665
Rp666
F0.386
sg1
((lp667
S'Ad'
p668
aS'Th'
p669
atp670
Rp671
F0.629
sg1
((lp672
S'9c'
p673
aS'5c'
p674
atp675
Rp676
F0.45899999999999996
sg1
((lp677
S'Qc'
p678
aS'Kh'
p679
atp680
Rp681
F0.614
sg1
((lp682
S'As'
p683
aS'9d'
p684
atp685
Rp686
F0.609
sg1
((lp687
S'3h'
p688
aS'7c'
p689
atp690
Rp691
F0.366
sg1
((lp692
S'3s'
p693
aS'3h'
p694
atp695
Rp696
F0.537
sg1
((lp697
S'Ah'
p698
aS'5h'
p699
atp700
Rp701
F0.599
sg1
((lp702
S'Kh'
p703
aS'Qd'
p704
atp705
Rp706
F0.614
sg1
((lp707
S'6h'
p708
aS'6s'
p709
atp710
Rp711
F0.633
sg1
((lp712
S'9s'
p713
aS'Ac'
p714
atp715
Rp716
F0.609
sg1
((lp717
S'Qh'
p718
aS'4c'
p719
atp720
Rp721
F0.49
sg1
((lp722
S'8c'
p723
aS'Ts'
p724
atp725
Rp726
F0.5
sg1
((lp727
S'5s'
p728
aS'Kd'
p729
atp730
Rp731
F0.5329999999999999
sg1
((lp732
S'Kh'
p733
aS'4c'
p734
atp735
Rp736
F0.521
sg1
((lp737
S'9h'
p738
aS'8d'
p739
atp740
Rp741
F0.484
sg1
((lp742
S'6d'
p743
aS'Jc'
p744
atp745
Rp746
F0.479
sg1
((lp747
S'6h'
p748
aS'5c'
p749
atp750
Rp751
F0.401
sg1
((lp752
S'Ks'
p753
aS'Js'
p754
atp755
Rp756
F0.626
sg1
((lp757
S'Ah'
p758
aS'Ad'
p759
atp760
Rp761
F0.853
sg1
((lp762
S'As'
p763
aS'6s'
p764
atp765
Rp766
F0.6
sg1
((lp767
S'2h'
p768
aS'5c'
p769
atp770
Rp771
F0.33899999999999997
sg1
((lp772
S'6h'
p773
aS'8h'
p774
atp775
Rp776
F0.465
sg1
((lp777
S'Qs'
p778
aS'7h'
p779
atp780
Rp781
F0.519
sg1
((lp782
S'9s'
p783
aS'Jh'
p784
atp785
Rp786
F0.534
sg1
((lp787
S'3h'
p788
aS'Jc'
p789
atp790
Rp791
F0.45
sg1
((lp792
S'3c'
p793
aS'Tc'
p794
atp795
Rp796
F0.455
sg1
((lp797
S'Ah'
p798
aS'4h'
p799
atp800
Rp801
F0.589
sg1
((lp802
S'6h'
p803
aS'3s'
p804
atp805
Rp806
F0.359
sg1
((lp807
S'Jc'
p808
aS'2c'
p809
atp810
Rp811
F0.47100000000000003
sg1
((lp812
S'5d'
p813
aS'6c'
p814
atp815
Rp816
F0.401
sg1
((lp817
S'Kc'
p818
aS'7h'
p819
atp820
Rp821
F0.5539999999999999
sg1
((lp822
S'6c'
p823
aS'Kd'
p824
atp825
Rp826
F0.5429999999999999
sg1
((lp827
S'3c'
p828
aS'7c'
p829
atp830
Rp831
F0.4
sg1
((lp832
S'9c'
p833
aS'2s'
p834
atp835
Rp836
F0.389
sg1
((lp837
S'Ks'
p838
aS'8d'
p839
atp840
Rp841
F0.563
sg1
((lp842
S'Kc'
p843
aS'Ad'
p844
atp845
Rp846
F0.654
sg1
((lp847
S'2d'
p848
aS'9s'
p849
atp850
Rp851
F0.389
sg1
((lp852
S'7d'
p853
aS'7s'
p854
atp855
Rp856
F0.662
sg1
((lp857
S'8s'
p858
aS'3h'
p859
atp860
Rp861
F0.375
sg1
((lp862
S'6c'
p863
aS'6d'
p864
atp865
Rp866
F0.633
sg1
((lp867
S'Qc'
p868
aS'Qs'
p869
atp870
Rp871
F0.799
sg1
((lp872
S'Ks'
p873
aS'Jd'
p874
atp875
Rp876
F0.606
sg1
((lp877
S'Qc'
p878
aS'Jc'
p879
atp880
Rp881
F0.603
sg1
((lp882
S'9h'
p883
aS'6c'
p884
atp885
Rp886
F0.449
sg1
((lp887
S'9h'
p888
aS'As'
p889
atp890
Rp891
F0.609
sg1
((lp892
S'8s'
p893
aS'4s'
p894
atp895
Rp896
F0.42700000000000005
sg1
((lp897
S'Th'
p898
aS'Kd'
p899
atp900
Rp901
F0.599
sg1
((lp902
S'9s'
p903
aS'2s'
p904
atp905
Rp906
F0.423
sg1
((lp907
S'9s'
p908
aS'7s'
p909
atp910
Rp911
F0.495
sg1
((lp912
S'Jh'
p913
aS'Qd'
p914
atp915
Rp916
F0.5820000000000001
sg1
((lp917
S'Ad'
p918
aS'Kd'
p919
atp920
Rp921
F0.67
sg1
((lp922
S'Kh'
p923
aS'Jc'
p924
atp925
Rp926
F0.606
sg1
((lp927
S'9s'
p928
aS'Kh'
p929
atp930
Rp931
F0.58
sg1
((lp932
S'4d'
p933
aS'7d'
p934
atp935
Rp936
F0.418
sg1
((lp937
S'Ts'
p938
aS'Th'
p939
atp940
Rp941
F0.7509999999999999
sg1
((lp942
S'2h'
p943
aS'3d'
p944
atp945
Rp946
F0.312
sg1
((lp947
S'7s'
p948
aS'3d'
p949
atp950
Rp951
F0.366
sg1
((lp952
S'Ac'
p953
aS'9d'
p954
atp955
Rp956
F0.609
sg1
((lp957
S'Ah'
p958
aS'Qh'
p959
atp960
Rp961
F0.6609999999999999
sg1
((lp962
S'Ac'
p963
aS'2c'
p964
atp965
Rp966
F0.57
sg1
((lp967
S'4s'
p968
aS'Jc'
p969
atp970
Rp971
F0.461
sg1
((lp972
S'6d'
p973
aS'5h'
p974
atp975
Rp976
F0.401
sg1
((lp977
S'Kh'
p978
aS'Ad'
p979
atp980
Rp981
F0.654
sg1
((lp982
S'Jc'
p983
aS'Kd'
p984
atp985
Rp986
F0.606
sg1
((lp987
S'7d'
p988
aS'Th'
p989
atp990
Rp991
F0.48200000000000004
sg1
((lp992
S'8s'
p993
aS'Kh'
p994
atp995
Rp996
F0.563
sg1
((lp997
S'8c'
p998
aS'Js'
p999
atp1000
Rp1001
F0.517
sg1
((lp1002
S'Jd'
p1003
aS'8h'
p1004
atp1005
Rp1006
F0.517
sg1
((lp1007
S'2d'
p1008
aS'Jh'
p1009
atp1010
Rp1011
F0.44
sg1
((lp1012
S'Qd'
p1013
aS'5h'
p1014
atp1015
Rp1016
F0.502
sg1
((lp1017
S'9s'
p1018
aS'9d'
p1019
atp1020
Rp1021
F0.721
sg1
((lp1022
S'Tc'
p1023
aS'Jc'
p1024
atp1025
Rp1026
F0.575
sg1
((lp1027
S'7s'
p1028
aS'4c'
p1029
atp1030
Rp1031
F0.386
sg1
((lp1032
S'Ah'
p1033
aS'Qd'
p1034
atp1035
Rp1036
F0.645
sg1
((lp1037
S'8c'
p1038
aS'2h'
p1039
atp1040
Rp1041
F0.368
sg1
((lp1042
S'5c'
p1043
aS'Kd'
p1044
atp1045
Rp1046
F0.5329999999999999
sg1
((lp1047
S'Ac'
p1048
aS'3d'
p1049
atp1050
Rp1051
F0.556
sg1
((lp1052
S'Kc'
p1053
aS'2s'
p1054
atp1055
Rp1056
F0.502
sg1
((lp1057
S'2d'
p1058
aS'7c'
p1059
atp1060
Rp1061
F0.34600000000000003
sg1
((lp1062
S'9s'
p1063
aS'3h'
p1064
atp1065
Rp1066
F0.39899999999999997
sg1
((lp1067
S'9c'
p1068
aS'Qd'
p1069
atp1070
Rp1071
F0.555
sg1
((lp1072
S'Ah'
p1073
aS'7d'
p1074
atp1075
Rp1076
F0.591
sg1
((lp1077
S'Ks'
p1078
aS'7h'
p1079
atp1080
Rp1081
F0.5539999999999999
sg1
((lp1082
S'3s'
p1083
aS'Jh'
p1084
atp1085
Rp1086
F0.45
sg1
((lp1087
S'Qc'
p1088
aS'6c'
p1089
atp1090
Rp1091
F0.5379999999999999
sg1
((lp1092
S'7s'
p1093
aS'Th'
p1094
atp1095
Rp1096
F0.48200000000000004
sg1
((lp1097
S'9c'
p1098
aS'4c'
p1099
atp1100
Rp1101
F0.43799999999999994
sg1
((lp1102
S'3c'
p1103
aS'4h'
p1104
atp1105
Rp1106
F0.344
sg1
((lp1107
S'2d'
p1108
aS'9h'
p1109
atp1110
Rp1111
F0.389
sg1
((lp1112
S'6h'
p1113
aS'Kh'
p1114
atp1115
Rp1116
F0.568
sg1
((lp1117
S'8s'
p1118
aS'6c'
p1119
atp1120
Rp1121
F0.436
sg1
((lp1122
S'Kh'
p1123
aS'2h'
p1124
atp1125
Rp1126
F0.529
sg1
((lp1127
S'3s'
p1128
aS'7c'
p1129
atp1130
Rp1131
F0.366
sg1
((lp1132
S'8s'
p1133
aS'Jh'
p1134
atp1135
Rp1136
F0.517
sg1
((lp1137
S'Qh'
p1138
aS'7h'
p1139
atp1140
Rp1141
F0.545
sg1
((lp1142
S'Ah'
p1143
aS'8d'
p1144
atp1145
Rp1146
F0.601
sg1
((lp1147
S'4d'
p1148
aS'3d'
p1149
atp1150
Rp1151
F0.38
sg1
((lp1152
S'4d'
p1153
aS'7c'
p1154
atp1155
Rp1156
F0.386
sg1
((lp1157
S'Tc'
p1158
aS'5s'
p1159
atp1160
Rp1161
F0.442
sg1
((lp1162
S'Kh'
p1163
aS'2s'
p1164
atp1165
Rp1166
F0.502
sg1
((lp1167
S'3c'
p1168
aS'Qc'
p1169
atp1170
Rp1171
F0.507
sg1
((lp1172
S'Jh'
p1173
aS'Ad'
p1174
atp1175
Rp1176
F0.636
sg1
((lp1177
S'7c'
p1178
aS'5c'
p1179
atp1180
Rp1181
F0.43799999999999994
sg1
((lp1182
S'6h'
p1183
aS'Kd'
p1184
atp1185
Rp1186
F0.5429999999999999
sg1
((lp1187
S'8s'
p1188
aS'7c'
p1189
atp1190
Rp1191
F0.455
sg1
((lp1192
S'Tc'
p1193
aS'4c'
p1194
atp1195
Rp1196
F0.46399999999999997
sg1
((lp1197
S'9d'
p1198
aS'5c'
p1199
atp1200
Rp1201
F0.429
sg1
((lp1202
S'6h'
p1203
aS'5d'
p1204
atp1205
Rp1206
F0.401
sg1
((lp1207
S'Qh'
p1208
aS'Ts'
p1209
atp1210
Rp1211
F0.574
sg1
((lp1212
S'4h'
p1213
aS'7h'
p1214
atp1215
Rp1216
F0.418
sg1
((lp1217
S'3s'
p1218
aS'Kh'
p1219
atp1220
Rp1221
F0.512
sg1
((lp1222
S'2d'
p1223
aS'8c'
p1224
atp1225
Rp1226
F0.368
sg1
((lp1227
S'Tc'
p1228
aS'3d'
p1229
atp1230
Rp1231
F0.424
sg1
((lp1232
S'9c'
p1233
aS'6c'
p1234
atp1235
Rp1236
F0.47700000000000004
sg1
((lp1237
S'2d'
p1238
aS'Ac'
p1239
atp1240
Rp1241
F0.546
sg1
((lp1242
S'5c'
p1243
aS'4h'
p1244
atp1245
Rp1246
F0.379
sg1
((lp1247
S'9h'
p1248
aS'4d'
p1249
atp1250
Rp1251
F0.40700000000000003
sg1
((lp1252
S'Jd'
p1253
aS'7h'
p1254
atp1255
Rp1256
F0.499
sg1
((lp1257
S'8h'
p1258
aS'Kh'
p1259
atp1260
Rp1261
F0.585
sg1
((lp1262
S'Jd'
p1263
aS'8s'
p1264
atp1265
Rp1266
F0.517
sg1
((lp1267
S'6s'
p1268
aS'7s'
p1269
atp1270
Rp1271
F0.457
sg1
((lp1272
S'Ks'
p1273
aS'Tc'
p1274
atp1275
Rp1276
F0.599
sg1
((lp1277
S'8s'
p1278
aS'Jc'
p1279
atp1280
Rp1281
F0.517
sg1
((lp1282
S'Ks'
p1283
aS'3c'
p1284
atp1285
Rp1286
F0.512
sg1
((lp1287
S'Kc'
p1288
aS'8c'
p1289
atp1290
Rp1291
F0.585
sg1
((lp1292
S'9c'
p1293
aS'3h'
p1294
atp1295
Rp1296
F0.39899999999999997
sg1
((lp1297
S'Kc'
p1298
aS'Td'
p1299
atp1300
Rp1301
F0.599
sg1
((lp1302
S'8h'
p1303
aS'Tc'
p1304
atp1305
Rp1306
F0.5
sg1
((lp1307
S'6d'
p1308
aS'Ad'
p1309
atp1310
Rp1311
F0.6
sg1
((lp1312
S'6h'
p1313
aS'2c'
p1314
atp1315
Rp1316
F0.34
sg1
((lp1317
S'8s'
p1318
aS'Qc'
p1319
atp1320
Rp1321
F0.5379999999999999
sg1
((lp1322
S'8s'
p1323
aS'4h'
p1324
atp1325
Rp1326
F0.396
sg1
((lp1327
S'Ad'
p1328
aS'Ts'
p1329
atp1330
Rp1331
F0.629
sg1
((lp1332
S'Ks'
p1333
aS'Ah'
p1334
atp1335
Rp1336
F0.654
sg1
((lp1337
S'3s'
p1338
aS'9c'
p1339
atp1340
Rp1341
F0.39899999999999997
sg1
((lp1342
S'3s'
p1343
aS'Tc'
p1344
atp1345
Rp1346
F0.424
sg1
((lp1347
S'5d'
p1348
aS'Kd'
p1349
atp1350
Rp1351
F0.5579999999999999
sg1
((lp1352
S'As'
p1353
aS'4c'
p1354
atp1355
Rp1356
F0.564
sg1
((lp1357
S'9c'
p1358
aS'4d'
p1359
atp1360
Rp1361
F0.40700000000000003
sg1
((lp1362
S'2h'
p1363
aS'2c'
p1364
atp1365
Rp1366
F0.503
sg1
((lp1367
S'Ad'
p1368
aS'5s'
p1369
atp1370
Rp1371
F0.5770000000000001
sg1
((lp1372
S'Ks'
p1373
aS'Ts'
p1374
atp1375
Rp1376
F0.619
sg1
((lp1377
S'Kc'
p1378
aS'8h'
p1379
atp1380
Rp1381
F0.563
sg1
((lp1382
S'Ah'
p1383
aS'5c'
p1384
atp1385
Rp1386
F0.5770000000000001
sg1
((lp1387
S'Ah'
p1388
aS'9c'
p1389
atp1390
Rp1391
F0.609
sg1
((lp1392
S'8c'
p1393
aS'Tc'
p1394
atp1395
Rp1396
F0.526
sg1
((lp1397
S'4d'
p1398
aS'Js'
p1399
atp1400
Rp1401
F0.461
sg1
((lp1402
S'Kh'
p1403
aS'9d'
p1404
atp1405
Rp1406
F0.58
sg1
((lp1407
S'Jd'
p1408
aS'3h'
p1409
atp1410
Rp1411
F0.45
sg1
((lp1412
S'Ks'
p1413
aS'Th'
p1414
atp1415
Rp1416
F0.599
sg1
((lp1417
S'4d'
p1418
aS'3h'
p1419
atp1420
Rp1421
F0.344
sg1
((lp1422
S'6h'
p1423
aS'4d'
p1424
atp1425
Rp1426
F0.38
sg1
((lp1427
S'8h'
p1428
aS'Td'
p1429
atp1430
Rp1431
F0.5
sg1
((lp1432
S'6c'
p1433
aS'7s'
p1434
atp1435
Rp1436
F0.42700000000000005
sg1
((lp1437
S'9c'
p1438
aS'7s'
p1439
atp1440
Rp1441
F0.467
sg1
((lp1442
S'9h'
p1443
aS'8h'
p1444
atp1445
Rp1446
F0.511
sg1
((lp1447
S'As'
p1448
aS'4h'
p1449
atp1450
Rp1451
F0.564
sg1
((lp1452
S'3s'
p1453
aS'6d'
p1454
atp1455
Rp1456
F0.359
sg1
((lp1457
S'Qc'
p1458
aS'2s'
p1459
atp1460
Rp1461
F0.47
sg1
((lp1462
S'Ts'
p1463
aS'2c'
p1464
atp1465
Rp1466
F0.415
sg1
((lp1467
S'3c'
p1468
aS'6d'
p1469
atp1470
Rp1471
F0.359
sg1
((lp1472
S'Ks'
p1473
aS'4s'
p1474
atp1475
Rp1476
F0.547
sg1
((lp1477
S'5d'
p1478
aS'Td'
p1479
atp1480
Rp1481
F0.47200000000000003
sg1
((lp1482
S'Jh'
p1483
aS'4h'
p1484
atp1485
Rp1486
F0.49
sg1
((lp1487
S'Jd'
p1488
aS'4c'
p1489
atp1490
Rp1491
F0.461
sg1
((lp1492
S'8s'
p1493
aS'9d'
p1494
atp1495
Rp1496
F0.484
sg1
((lp1497
S'Qs'
p1498
aS'8h'
p1499
atp1500
Rp1501
F0.5379999999999999
sg1
((lp1502
S'Tc'
p1503
aS'7h'
p1504
atp1505
Rp1506
F0.48200000000000004
sg1
((lp1507
S'6c'
p1508
aS'7h'
p1509
atp1510
Rp1511
F0.42700000000000005
sg1
((lp1512
S'2d'
p1513
aS'2c'
p1514
atp1515
Rp1516
F0.503
sg1
((lp1517
S'Qc'
p1518
aS'9c'
p1519
atp1520
Rp1521
F0.579
sg1
((lp1522
S'7c'
p1523
aS'2h'
p1524
atp1525
Rp1526
F0.34600000000000003
sg1
((lp1527
S'8s'
p1528
aS'Qs'
p1529
atp1530
Rp1531
F0.562
sg1
((lp1532
S'Ts'
p1533
aS'Kd'
p1534
atp1535
Rp1536
F0.599
sg1
((lp1537
S'Ah'
p1538
aS'Td'
p1539
atp1540
Rp1541
F0.629
sg1
((lp1542
S'7c'
p1543
aS'5h'
p1544
atp1545
Rp1546
F0.408
sg1
((lp1547
S'6s'
p1548
aS'Th'
p1549
atp1550
Rp1551
F0.46299999999999997
sg1
((lp1552
S'Ks'
p1553
aS'Td'
p1554
atp1555
Rp1556
F0.599
sg1
((lp1557
S'2h'
p1558
aS'2s'
p1559
atp1560
Rp1561
F0.503
sg1
((lp1562
S'8h'
p1563
aS'4c'
p1564
atp1565
Rp1566
F0.396
sg1
((lp1567
S'As'
p1568
aS'7c'
p1569
atp1570
Rp1571
F0.591
sg1
((lp1572
S'6c'
p1573
aS'7c'
p1574
atp1575
Rp1576
F0.457
sg1
((lp1577
S'6h'
p1578
aS'Jh'
p1579
atp1580
Rp1581
F0.508
sg1
((lp1582
S'5s'
p1583
aS'2s'
p1584
atp1585
Rp1586
F0.375
sg1
((lp1587
S'6d'
p1588
aS'4h'
p1589
atp1590
Rp1591
F0.38
sg1
((lp1592
S'Jh'
p1593
aS'2h'
p1594
atp1595
Rp1596
F0.47100000000000003
sg1
((lp1597
S'8h'
p1598
aS'7h'
p1599
atp1600
Rp1601
F0.48200000000000004
sg1
((lp1602
S'2d'
p1603
aS'4h'
p1604
atp1605
Rp1606
F0.325
sg1
((lp1607
S'4d'
p1608
aS'2s'
p1609
atp1610
Rp1611
F0.325
sg1
((lp1612
S'Js'
p1613
aS'7h'
p1614
atp1615
Rp1616
F0.499
sg1
((lp1617
S'8c'
p1618
aS'3h'
p1619
atp1620
Rp1621
F0.375
sg1
((lp1622
S'Ah'
p1623
aS'Qs'
p1624
atp1625
Rp1626
F0.645
sg1
((lp1627
S'7s'
p1628
aS'2c'
p1629
atp1630
Rp1631
F0.34600000000000003
sg1
((lp1632
S'9c'
p1633
aS'7d'
p1634
atp1635
Rp1636
F0.467
sg1
((lp1637
S'Ks'
p1638
aS'Qs'
p1639
atp1640
Rp1641
F0.634
sg1
((lp1642
S'Qc'
p1643
aS'Ad'
p1644
atp1645
Rp1646
F0.645
sg1
((lp1647
S'5h'
p1648
aS'8d'
p1649
atp1650
Rp1651
F0.41700000000000004
sg1
((lp1652
S'2h'
p1653
aS'4s'
p1654
atp1655
Rp1656
F0.325
sg1
((lp1657
S'7c'
p1658
aS'9d'
p1659
atp1660
Rp1661
F0.467
sg1
((lp1662
S'Td'
p1663
aS'3d'
p1664
atp1665
Rp1666
F0.455
sg1
((lp1667
S'9c'
p1668
aS'7h'
p1669
atp1670
Rp1671
F0.467
sg1
((lp1672
S'Qc'
p1673
aS'6d'
p1674
atp1675
Rp1676
F0.511
sg1
((lp1677
S'Qh'
p1678
aS'Ac'
p1679
atp1680
Rp1681
F0.645
sg1
((lp1682
S'3c'
p1683
aS'4c'
p1684
atp1685
Rp1686
F0.38
sg1
((lp1687
S'8d'
p1688
aS'Kd'
p1689
atp1690
Rp1691
F0.585
sg1
((lp1692
S'9s'
p1693
aS'4s'
p1694
atp1695
Rp1696
F0.43799999999999994
sg1
((lp1697
S'9d'
p1698
aS'5h'
p1699
atp1700
Rp1701
F0.429
sg1
((lp1702
S'Qs'
p1703
aS'Js'
p1704
atp1705
Rp1706
F0.603
sg1
((lp1707
S'Kc'
p1708
aS'8d'
p1709
atp1710
Rp1711
F0.563
sg1
((lp1712
S'5d'
p1713
aS'4s'
p1714
atp1715
Rp1716
F0.379
sg1
((lp1717
S'Ac'
p1718
aS'4h'
p1719
atp1720
Rp1721
F0.564
sg1
((lp1722
S'8h'
p1723
aS'7c'
p1724
atp1725
Rp1726
F0.455
sg1
((lp1727
S'4s'
p1728
aS'3d'
p1729
atp1730
Rp1731
F0.344
sg1
((lp1732
S'9h'
p1733
aS'Tc'
p1734
atp1735
Rp1736
F0.517
sg1
((lp1737
S'9h'
p1738
aS'7s'
p1739
atp1740
Rp1741
F0.467
sg1
((lp1742
S'6s'
p1743
aS'4c'
p1744
atp1745
Rp1746
F0.38
sg1
((lp1747
S'Kh'
p1748
aS'3h'
p1749
atp1750
Rp1751
F0.5379999999999999
sg1
((lp1752
S'2h'
p1753
aS'6d'
p1754
atp1755
Rp1756
F0.34
sg1
((lp1757
S'Ah'
p1758
aS'Qc'
p1759
atp1760
Rp1761
F0.645
sg1
((lp1762
S'8s'
p1763
aS'4c'
p1764
atp1765
Rp1766
F0.396
sg1
((lp1767
S'6h'
p1768
aS'4h'
p1769
atp1770
Rp1771
F0.414
sg1
((lp1772
S'6s'
p1773
aS'Qd'
p1774
atp1775
Rp1776
F0.511
sg1
((lp1777
S'2d'
p1778
aS'7d'
p1779
atp1780
Rp1781
F0.381
sg1
((lp1782
S'Ad'
p1783
aS'Qd'
p1784
atp1785
Rp1786
F0.6609999999999999
sg1
((lp1787
S'As'
p1788
aS'8d'
p1789
atp1790
Rp1791
F0.601
sg1
((lp1792
S'6h'
p1793
aS'Ad'
p1794
atp1795
Rp1796
F0.578
sg1
((lp1797
S'6d'
p1798
aS'2s'
p1799
atp1800
Rp1801
F0.34
sg1
((lp1802
S'4s'
p1803
aS'5h'
p1804
atp1805
Rp1806
F0.379
sg1
((lp1807
S'3c'
p1808
aS'7h'
p1809
atp1810
Rp1811
F0.366
sg1
((lp1812
S'Qh'
p1813
aS'4d'
p1814
atp1815
Rp1816
F0.49
sg1
((lp1817
S'8h'
p1818
aS'2s'
p1819
atp1820
Rp1821
F0.368
sg1
((lp1822
S'Jd'
p1823
aS'Qs'
p1824
atp1825
Rp1826
F0.5820000000000001
sg1
((lp1827
S'5s'
p1828
aS'8d'
p1829
atp1830
Rp1831
F0.41700000000000004
sg1
((lp1832
S'Jd'
p1833
aS'Ah'
p1834
atp1835
Rp1836
F0.636
sg1
((lp1837
S'9s'
p1838
aS'2h'
p1839
atp1840
Rp1841
F0.389
sg1
((lp1842
S'4s'
p1843
aS'7h'
p1844
atp1845
Rp1846
F0.386
sg1
((lp1847
S'Qh'
p1848
aS'Ad'
p1849
atp1850
Rp1851
F0.645
sg1
((lp1852
S'3s'
p1853
aS'Qd'
p1854
atp1855
Rp1856
F0.479
sg1
((lp1857
S'Ks'
p1858
aS'3s'
p1859
atp1860
Rp1861
F0.5379999999999999
sg1
((lp1862
S'Td'
p1863
aS'6d'
p1864
atp1865
Rp1866
F0.49200000000000005
sg1
((lp1867
S'8c'
p1868
aS'9d'
p1869
atp1870
Rp1871
F0.484
sg1
((lp1872
S'7c'
p1873
aS'4s'
p1874
atp1875
Rp1876
F0.386
sg1
((lp1877
S'8c'
p1878
aS'2c'
p1879
atp1880
Rp1881
F0.40299999999999997
sg1
((lp1882
S'Jc'
p1883
aS'7h'
p1884
atp1885
Rp1886
F0.499
sg1
((lp1887
S'2h'
p1888
aS'Kd'
p1889
atp1890
Rp1891
F0.502
sg1
((lp1892
S'Jd'
p1893
aS'6d'
p1894
atp1895
Rp1896
F0.508
sg1
((lp1897
S'Qd'
p1898
aS'7h'
p1899
atp1900
Rp1901
F0.519
sg1
((lp1902
S'4d'
p1903
aS'Kd'
p1904
atp1905
Rp1906
F0.547
sg1
((lp1907
S'Jd'
p1908
aS'Th'
p1909
atp1910
Rp1911
F0.5539999999999999
sg1
((lp1912
S'Ks'
p1913
aS'2s'
p1914
atp1915
Rp1916
F0.529
sg1
((lp1917
S'Kc'
p1918
aS'Qd'
p1919
atp1920
Rp1921
F0.614
sg1
((lp1922
S'6c'
p1923
aS'4h'
p1924
atp1925
Rp1926
F0.38
sg1
((lp1927
S'Kc'
p1928
aS'6c'
p1929
atp1930
Rp1931
F0.568
sg1
((lp1932
S'Ts'
p1933
aS'3d'
p1934
atp1935
Rp1936
F0.424
sg1
((lp1937
S'9s'
p1938
aS'7h'
p1939
atp1940
Rp1941
F0.467
sg1
((lp1942
S'6h'
p1943
aS'3h'
p1944
atp1945
Rp1946
F0.39399999999999996
sg1
((lp1947
S'Ah'
p1948
aS'Ac'
p1949
atp1950
Rp1951
F0.853
sg1
((lp1952
S'8s'
p1953
aS'2h'
p1954
atp1955
Rp1956
F0.368
sg1
((lp1957
S'6d'
p1958
aS'Th'
p1959
atp1960
Rp1961
F0.46299999999999997
sg1
((lp1962
S'Ac'
p1963
aS'Td'
p1964
atp1965
Rp1966
F0.629
sg1
((lp1967
S'8h'
p1968
aS'2c'
p1969
atp1970
Rp1971
F0.368
sg1
((lp1972
S'5d'
p1973
aS'Qs'
p1974
atp1975
Rp1976
F0.502
sg1
((lp1977
S'9h'
p1978
aS'Ac'
p1979
atp1980
Rp1981
F0.609
sg1
((lp1982
S'5d'
p1983
aS'Tc'
p1984
atp1985
Rp1986
F0.442
sg1
((lp1987
S'9h'
p1988
aS'7c'
p1989
atp1990
Rp1991
F0.467
sg1
((lp1992
S'Td'
p1993
aS'5s'
p1994
atp1995
Rp1996
F0.442
sg1
((lp1997
S'Jh'
p1998
aS'7c'
p1999
atp2000
Rp2001
F0.499
sg1
((lp2002
S'9c'
p2003
aS'Js'
p2004
atp2005
Rp2006
F0.534
sg1
((lp2007
S'8s'
p2008
aS'6s'
p2009
atp2010
Rp2011
F0.465
sg1
((lp2012
S'Qs'
p2013
aS'7d'
p2014
atp2015
Rp2016
F0.519
sg1
((lp2017
S'3c'
p2018
aS'3h'
p2019
atp2020
Rp2021
F0.537
sg1
((lp2022
S'Qc'
p2023
aS'4d'
p2024
atp2025
Rp2026
F0.49
sg1
((lp2027
S'Td'
p2028
aS'2c'
p2029
atp2030
Rp2031
F0.415
sg1
((lp2032
S'4d'
p2033
aS'6c'
p2034
atp2035
Rp2036
F0.38
sg1
((lp2037
S'6h'
p2038
aS'2h'
p2039
atp2040
Rp2041
F0.375
sg1
((lp2042
S'4h'
p2043
aS'Kd'
p2044
atp2045
Rp2046
F0.521
sg1
((lp2047
S'6s'
p2048
aS'Ad'
p2049
atp2050
Rp2051
F0.578
sg1
((lp2052
S'7s'
p2053
aS'4s'
p2054
atp2055
Rp2056
F0.418
sg1
((lp2057
S'Qh'
p2058
aS'5d'
p2059
atp2060
Rp2061
F0.502
sg1
((lp2062
S'Ac'
p2063
aS'Kd'
p2064
atp2065
Rp2066
F0.654
sg1
((lp2067
S'Ah'
p2068
aS'6s'
p2069
atp2070
Rp2071
F0.578
sg1
((lp2072
S'As'
p2073
aS'5c'
p2074
atp2075
Rp2076
F0.5770000000000001
sg1
((lp2077
S'Jd'
p2078
aS'4s'
p2079
atp2080
Rp2081
F0.461
sg1
((lp2082
S'9c'
p2083
aS'As'
p2084
atp2085
Rp2086
F0.609
sg1
((lp2087
S'4d'
p2088
aS'4c'
p2089
atp2090
Rp2091
F0.57
sg1
((lp2092
S'9s'
p2093
aS'7c'
p2094
atp2095
Rp2096
F0.467
sg1
((lp2097
S'Ah'
p2098
aS'4d'
p2099
atp2100
Rp2101
F0.564
sg1
((lp2102
S'Qh'
p2103
aS'Tc'
p2104
atp2105
Rp2106
F0.574
sg1
((lp2107
S'Ad'
p2108
aS'5h'
p2109
atp2110
Rp2111
F0.5770000000000001
sg1
((lp2112
S'8c'
p2113
aS'4h'
p2114
atp2115
Rp2116
F0.396
sg1
((lp2117
S'9c'
p2118
aS'2h'
p2119
atp2120
Rp2121
F0.389
sg1
((lp2122
S'Kc'
p2123
aS'Jc'
p2124
atp2125
Rp2126
F0.626
sg1
((lp2127
S'6s'
p2128
aS'8d'
p2129
atp2130
Rp2131
F0.436
sg1
((lp2132
S'6h'
p2133
aS'9c'
p2134
atp2135
Rp2136
F0.449
sg1
((lp2137
S'7d'
p2138
aS'5s'
p2139
atp2140
Rp2141
F0.408
sg1
((lp2142
S'8s'
p2143
aS'9s'
p2144
atp2145
Rp2146
F0.511
sg1
((lp2147
S'4c'
p2148
aS'Kd'
p2149
atp2150
Rp2151
F0.521
sg1
((lp2152
S'8s'
p2153
aS'Td'
p2154
atp2155
Rp2156
F0.5
sg1
((lp2157
S'3s'
p2158
aS'2h'
p2159
atp2160
Rp2161
F0.312
sg1
((lp2162
S'Jd'
p2163
aS'5d'
p2164
atp2165
Rp2166
F0.5
sg1
((lp2167
S'7s'
p2168
aS'Tc'
p2169
atp2170
Rp2171
F0.48200000000000004
sg1
((lp2172
S'9s'
p2173
aS'Qd'
p2174
atp2175
Rp2176
F0.555
sg1
((lp2177
S'2d'
p2178
aS'Kh'
p2179
atp2180
Rp2181
F0.502
sg1
((lp2182
S'Qh'
p2183
aS'7d'
p2184
atp2185
Rp2186
F0.519
sg1
((lp2187
S'Kh'
p2188
aS'3d'
p2189
atp2190
Rp2191
F0.512
sg1
((lp2192
S'Td'
p2193
aS'6c'
p2194
atp2195
Rp2196
F0.46299999999999997
sg1
((lp2197
S'7c'
p2198
aS'Th'
p2199
atp2200
Rp2201
F0.48200000000000004
sg1
((lp2202
S'7d'
p2203
aS'6d'
p2204
atp2205
Rp2206
F0.457
sg1
((lp2207
S'Tc'
p2208
aS'2c'
p2209
atp2210
Rp2211
F0.447
sg1
((lp2212
S'Jh'
p2213
aS'4s'
p2214
atp2215
Rp2216
F0.461
sg1
((lp2217
S'9d'
p2218
aS'Tc'
p2219
atp2220
Rp2221
F0.517
sg1
((lp2222
S'Qh'
p2223
aS'Th'
p2224
atp2225
Rp2226
F0.595
sg1
((lp2227
S'2d'
p2228
aS'3h'
p2229
atp2230
Rp2231
F0.312
sg1
((lp2232
S'6d'
p2233
aS'3d'
p2234
atp2235
Rp2236
F0.39399999999999996
sg1
((lp2237
S'Ts'
p2238
aS'4h'
p2239
atp2240
Rp2241
F0.434
sg1
((lp2242
S'Qh'
p2243
aS'7c'
p2244
atp2245
Rp2246
F0.519
sg1
((lp2247
S'2d'
p2248
aS'Qh'
p2249
atp2250
Rp2251
F0.47
sg1
((lp2252
S'7h'
p2253
aS'3d'
p2254
atp2255
Rp2256
F0.366
sg1
((lp2257
S'3s'
p2258
aS'7h'
p2259
atp2260
Rp2261
F0.366
sg1
((lp2262
S'9h'
p2263
aS'Qd'
p2264
atp2265
Rp2266
F0.555
sg1
((lp2267
S'3c'
p2268
aS'Qs'
p2269
atp2270
Rp2271
F0.479
sg1
((lp2272
S'9h'
p2273
aS'5s'
p2274
atp2275
Rp2276
F0.429
sg1
((lp2277
S'Jh'
p2278
aS'7s'
p2279
atp2280
Rp2281
F0.499
sg1
((lp2282
S'Ks'
p2283
aS'3d'
p2284
atp2285
Rp2286
F0.512
sg1
((lp2287
S'6d'
p2288
aS'4s'
p2289
atp2290
Rp2291
F0.38
sg1
((lp2292
S'Ah'
p2293
aS'3d'
p2294
atp2295
Rp2296
F0.556
sg1
((lp2297
S'7h'
p2298
aS'Kd'
p2299
atp2300
Rp2301
F0.5539999999999999
sg1
((lp2302
S'5d'
p2303
aS'5s'
p2304
atp2305
Rp2306
F0.603
sg1
((lp2307
S'9d'
p2308
aS'2s'
p2309
atp2310
Rp2311
F0.389
sg1
((lp2312
S'Qc'
p2313
aS'Th'
p2314
atp2315
Rp2316
F0.574
sg1
((lp2317
S'2d'
p2318
aS'Qd'
p2319
atp2320
Rp2321
F0.499
sg1
((lp2322
S'7d'
p2323
aS'Ad'
p2324
atp2325
Rp2326
F0.611
sg1
((lp2327
S'8c'
p2328
aS'9s'
p2329
atp2330
Rp2331
F0.484
sg1
((lp2332
S'Ah'
p2333
aS'7s'
p2334
atp2335
Rp2336
F0.591
sg1
((lp2337
S'3c'
p2338
aS'Td'
p2339
atp2340
Rp2341
F0.424
sg1
((lp2342
S'2c'
p2343
aS'Kd'
p2344
atp2345
Rp2346
F0.502
sg1
((lp2347
S'9c'
p2348
aS'6d'
p2349
atp2350
Rp2351
F0.449
sg1
((lp2352
S'6h'
p2353
aS'Td'
p2354
atp2355
Rp2356
F0.46299999999999997
sg1
((lp2357
S'7d'
p2358
aS'7h'
p2359
atp2360
Rp2361
F0.662
sg1
((lp2362
S'3h'
p2363
aS'3d'
p2364
atp2365
Rp2366
F0.537
sg1
((lp2367
S'9c'
p2368
aS'4s'
p2369
atp2370
Rp2371
F0.40700000000000003
sg1
((lp2372
S'Ts'
p2373
aS'Js'
p2374
atp2375
Rp2376
F0.575
sg1
((lp2377
S'9s'
p2378
aS'4h'
p2379
atp2380
Rp2381
F0.40700000000000003
sg1
((lp2382
S'Kc'
p2383
aS'4s'
p2384
atp2385
Rp2386
F0.521
sg1
((lp2387
S'2d'
p2388
aS'Js'
p2389
atp2390
Rp2391
F0.44
sg1
((lp2392
S'Qs'
p2393
aS'Ts'
p2394
atp2395
Rp2396
F0.595
sg1
((lp2397
S'Kc'
p2398
aS'5d'
p2399
atp2400
Rp2401
F0.5329999999999999
sg1
((lp2402
S'6c'
p2403
aS'5h'
p2404
atp2405
Rp2406
F0.401
sg1
((lp2407
S'7d'
p2408
aS'2s'
p2409
atp2410
Rp2411
F0.34600000000000003
sg1
((lp2412
S'3s'
p2413
aS'8c'
p2414
atp2415
Rp2416
F0.375
sg1
((lp2417
S'Ad'
p2418
aS'2c'
p2419
atp2420
Rp2421
F0.546
sg1
((lp2422
S'Kc'
p2423
aS'Tc'
p2424
atp2425
Rp2426
F0.619
sg1
((lp2427
S'2d'
p2428
aS'Qc'
p2429
atp2430
Rp2431
F0.47
sg1
((lp2432
S'2s'
p2433
aS'Kd'
p2434
atp2435
Rp2436
F0.502
sg1
((lp2437
S'Qd'
p2438
aS'Ts'
p2439
atp2440
Rp2441
F0.574
sg1
((lp2442
S'Td'
p2443
aS'Kd'
p2444
atp2445
Rp2446
F0.619
sg1
((lp2447
S'7d'
p2448
aS'2h'
p2449
atp2450
Rp2451
F0.34600000000000003
sg1
((lp2452
S'Td'
p2453
aS'8d'
p2454
atp2455
Rp2456
F0.526
sg1
((lp2457
S'8s'
p2458
aS'2c'
p2459
atp2460
Rp2461
F0.368
sg1
((lp2462
S'As'
p2463
aS'4s'
p2464
atp2465
Rp2466
F0.589
sg1
((lp2467
S'5d'
p2468
aS'As'
p2469
atp2470
Rp2471
F0.5770000000000001
sg1
((lp2472
S'Jd'
p2473
aS'7s'
p2474
atp2475
Rp2476
F0.499
sg1
((lp2477
S'Ks'
p2478
aS'8h'
p2479
atp2480
Rp2481
F0.563
sg1
((lp2482
S'8h'
p2483
aS'Qd'
p2484
atp2485
Rp2486
F0.5379999999999999
sg1
((lp2487
S'4h'
p2488
aS'2c'
p2489
atp2490
Rp2491
F0.325
sg1
((lp2492
S'Qh'
p2493
aS'9c'
p2494
atp2495
Rp2496
F0.555
sg1
((lp2497
S'Jd'
p2498
aS'As'
p2499
atp2500
Rp2501
F0.636
sg1
((lp2502
S'As'
p2503
aS'Tc'
p2504
atp2505
Rp2506
F0.629
sg1
((lp2507
S'3s'
p2508
aS'9s'
p2509
atp2510
Rp2511
F0.43200000000000005
sg1
((lp2512
S'3c'
p2513
aS'8s'
p2514
atp2515
Rp2516
F0.375
sg1
((lp2517
S'Kc'
p2518
aS'Th'
p2519
atp2520
Rp2521
F0.599
sg1
((lp2522
S'8c'
p2523
aS'Qc'
p2524
atp2525
Rp2526
F0.562
sg1
((lp2527
S'8s'
p2528
aS'3d'
p2529
atp2530
Rp2531
F0.375
sg1
((lp2532
S'3c'
p2533
aS'6s'
p2534
atp2535
Rp2536
F0.359
sg1
((lp2537
S'2d'
p2538
aS'Kd'
p2539
atp2540
Rp2541
F0.529
sg1
((lp2542
S'7c'
p2543
aS'4h'
p2544
atp2545
Rp2546
F0.386
sg1
((lp2547
S'8c'
p2548
aS'4c'
p2549
atp2550
Rp2551
F0.42700000000000005
sg1
((lp2552
S'6h'
p2553
aS'7c'
p2554
atp2555
Rp2556
F0.42700000000000005
sg1
((lp2557
S'6h'
p2558
aS'Qh'
p2559
atp2560
Rp2561
F0.5379999999999999
sg1
((lp2562
S'7s'
p2563
aS'5s'
p2564
atp2565
Rp2566
F0.43799999999999994
sg1
((lp2567
S'8c'
p2568
aS'Qd'
p2569
atp2570
Rp2571
F0.5379999999999999
sg1
((lp2572
S'7d'
p2573
aS'4s'
p2574
atp2575
Rp2576
F0.386
sg1
((lp2577
S'5s'
p2578
aS'Th'
p2579
atp2580
Rp2581
F0.442
sg1
((lp2582
S'8h'
p2583
aS'4d'
p2584
atp2585
Rp2586
F0.396
sg1
((lp2587
S'9c'
p2588
aS'Kd'
p2589
atp2590
Rp2591
F0.58
sg1
((lp2592
S'Qd'
p2593
aS'3d'
p2594
atp2595
Rp2596
F0.507
sg1
((lp2597
S'3s'
p2598
aS'As'
p2599
atp2600
Rp2601
F0.58
sg1
((lp2602
S'3c'
p2603
aS'3d'
p2604
atp2605
Rp2606
F0.537
sg1
((lp2607
S'6d'
p2608
aS'8d'
p2609
atp2610
Rp2611
F0.465
sg1
((lp2612
S'Qc'
p2613
aS'8h'
p2614
atp2615
Rp2616
F0.5379999999999999
sg1
((lp2617
S'Ac'
p2618
aS'Jh'
p2619
atp2620
Rp2621
F0.636
sg1
((lp2622
S'6d'
p2623
aS'2c'
p2624
atp2625
Rp2626
F0.34
sg1
((lp2627
S'Th'
p2628
aS'7h'
p2629
atp2630
Rp2631
F0.51
sg1
((lp2632
S'As'
p2633
aS'2h'
p2634
atp2635
Rp2636
F0.546
sg1
((lp2637
S'6c'
p2638
aS'2h'
p2639
atp2640
Rp2641
F0.34
sg1
((lp2642
S'7d'
p2643
aS'Js'
p2644
atp2645
Rp2646
F0.499
sg1
((lp2647
S'5d'
p2648
aS'2c'
p2649
atp2650
Rp2651
F0.33899999999999997
sg1
((lp2652
S'6h'
p2653
aS'As'
p2654
atp2655
Rp2656
F0.578
sg1
((lp2657
S'Ac'
p2658
aS'7c'
p2659
atp2660
Rp2661
F0.611
sg1
((lp2662
S'Th'
p2663
aS'Js'
p2664
atp2665
Rp2666
F0.5539999999999999
sg1
((lp2667
S'Qs'
p2668
aS'5s'
p2669
atp2670
Rp2671
F0.529
sg1
((lp2672
S'As'
p2673
aS'6c'
p2674
atp2675
Rp2676
F0.578
sg1
((lp2677
S'2h'
p2678
aS'5s'
p2679
atp2680
Rp2681
F0.33899999999999997
sg1
((lp2682
S'4s'
p2683
aS'Kd'
p2684
atp2685
Rp2686
F0.521
sg1
((lp2687
S'8c'
p2688
aS'Td'
p2689
atp2690
Rp2691
F0.5
sg1
((lp2692
S'8d'
p2693
aS'3d'
p2694
atp2695
Rp2696
F0.408
sg1
((lp2697
S'Ks'
p2698
aS'7d'
p2699
atp2700
Rp2701
F0.5539999999999999
sg1
((lp2702
S'3c'
p2703
aS'8d'
p2704
atp2705
Rp2706
F0.375
sg1
((lp2707
S'Tc'
p2708
aS'Kd'
p2709
atp2710
Rp2711
F0.599
sg1
((lp2712
S'8s'
p2713
aS'5s'
p2714
atp2715
Rp2716
F0.44799999999999995
sg1
((lp2717
S'As'
p2718
aS'4d'
p2719
atp2720
Rp2721
F0.564
sg1
((lp2722
S'9d'
p2723
aS'5s'
p2724
atp2725
Rp2726
F0.429
sg1
((lp2727
S'Qd'
p2728
aS'Js'
p2729
atp2730
Rp2731
F0.5820000000000001
sg1
((lp2732
S'Jd'
p2733
aS'3d'
p2734
atp2735
Rp2736
F0.479
sg1
((lp2737
S'2d'
p2738
aS'6d'
p2739
atp2740
Rp2741
F0.375
sg1
((lp2742
S'5s'
p2743
aS'7h'
p2744
atp2745
Rp2746
F0.408
sg1
((lp2747
S'Jd'
p2748
aS'Ac'
p2749
atp2750
Rp2751
F0.636
sg1
((lp2752
S'3c'
p2753
aS'Jd'
p2754
atp2755
Rp2756
F0.45
sg1
((lp2757
S'4d'
p2758
aS'2h'
p2759
atp2760
Rp2761
F0.325
sg1
((lp2762
S'8s'
p2763
aS'As'
p2764
atp2765
Rp2766
F0.621
sg1
((lp2767
S'6h'
p2768
aS'4s'
p2769
atp2770
Rp2771
F0.38
sg1
((lp2772
S'6h'
p2773
aS'9d'
p2774
atp2775
Rp2776
F0.449
sg1
((lp2777
S'8h'
p2778
aS'5h'
p2779
atp2780
Rp2781
F0.44799999999999995
sg1
((lp2782
S'7h'
p2783
aS'2s'
p2784
atp2785
Rp2786
F0.34600000000000003
sg1
((lp2787
S'6c'
p2788
aS'3d'
p2789
atp2790
Rp2791
F0.359
sg1
((lp2792
S'Kc'
p2793
aS'5c'
p2794
atp2795
Rp2796
F0.5579999999999999
sg1
((lp2797
S'4c'
p2798
aS'8d'
p2799
atp2800
Rp2801
F0.396
sg1
((lp2802
S'Jh'
p2803
aS'9d'
p2804
atp2805
Rp2806
F0.534
sg1
((lp2807
S'Ks'
p2808
aS'9s'
p2809
atp2810
Rp2811
F0.6
sg1
((lp2812
S'8h'
p2813
aS'7s'
p2814
atp2815
Rp2816
F0.455
sg1
((lp2817
S'Jd'
p2818
aS'2c'
p2819
atp2820
Rp2821
F0.44
sg1
((lp2822
S'Ac'
p2823
aS'Js'
p2824
atp2825
Rp2826
F0.636
sg1
((lp2827
S'Qh'
p2828
aS'Jc'
p2829
atp2830
Rp2831
F0.5820000000000001
sg1
((lp2832
S'Td'
p2833
aS'5h'
p2834
atp2835
Rp2836
F0.442
sg1
((lp2837
S'Ah'
p2838
aS'8c'
p2839
atp2840
Rp2841
F0.601
sg1
((lp2842
S'Qs'
p2843
aS'2s'
p2844
atp2845
Rp2846
F0.499
sg1
((lp2847
S'As'
p2848
aS'Jh'
p2849
atp2850
Rp2851
F0.636
sg1
((lp2852
S'Qd'
p2853
aS'2c'
p2854
atp2855
Rp2856
F0.47
sg1
((lp2857
S'8c'
p2858
aS'5h'
p2859
atp2860
Rp2861
F0.41700000000000004
sg1
((lp2862
S'3s'
p2863
aS'7d'
p2864
atp2865
Rp2866
F0.366
sg1
((lp2867
S'6d'
p2868
aS'Tc'
p2869
atp2870
Rp2871
F0.46299999999999997
sg1
((lp2872
S'Ac'
p2873
aS'2h'
p2874
atp2875
Rp2876
F0.546
sg1
((lp2877
S'6h'
p2878
aS'Ac'
p2879
atp2880
Rp2881
F0.578
sg1
((lp2882
S'Qc'
p2883
aS'3d'
p2884
atp2885
Rp2886
F0.479
sg1
((lp2887
S'3c'
p2888
aS'As'
p2889
atp2890
Rp2891
F0.556
sg1
((lp2892
S'Kc'
p2893
aS'Ks'
p2894
atp2895
Rp2896
F0.8240000000000001
sg1
((lp2897
S'Qc'
p2898
aS'8d'
p2899
atp2900
Rp2901
F0.5379999999999999
sg1
((lp2902
S'As'
p2903
aS'3h'
p2904
atp2905
Rp2906
F0.556
sg1
((lp2907
S'9h'
p2908
aS'7d'
p2909
atp2910
Rp2911
F0.467
sg1
((lp2912
S'Td'
p2913
aS'2s'
p2914
atp2915
Rp2916
F0.415
sg1
((lp2917
S'7s'
p2918
aS'2s'
p2919
atp2920
Rp2921
F0.381
sg1
((lp2922
S'8h'
p2923
aS'8d'
p2924
atp2925
Rp2926
F0.691
sg1
((lp2927
S'3h'
p2928
aS'5s'
p2929
atp2930
Rp2931
F0.358
sg1
((lp2932
S'2d'
p2933
aS'8h'
p2934
atp2935
Rp2936
F0.368
sg1
((lp2937
S'3c'
p2938
aS'8c'
p2939
atp2940
Rp2941
F0.408
sg1
((lp2942
S'Qd'
p2943
aS'2s'
p2944
atp2945
Rp2946
F0.47
sg1
((lp2947
S'Ks'
p2948
aS'4c'
p2949
atp2950
Rp2951
F0.521
sg1
((lp2952
S'5h'
p2953
aS'2s'
p2954
atp2955
Rp2956
F0.33899999999999997
sg1
((lp2957
S'3c'
p2958
aS'2c'
p2959
atp2960
Rp2961
F0.35100000000000003
sg1
((lp2962
S'Ad'
p2963
aS'Js'
p2964
atp2965
Rp2966
F0.636
sg1
((lp2967
S'Ah'
p2968
aS'9d'
p2969
atp2970
Rp2971
F0.609
sg1
((lp2972
S'Ks'
p2973
aS'Qd'
p2974
atp2975
Rp2976
F0.614
sg1
((lp2977
S'Qh'
p2978
aS'2s'
p2979
atp2980
Rp2981
F0.47
sg1
((lp2982
S'Kc'
p2983
aS'3h'
p2984
atp2985
Rp2986
F0.512
sg1
((lp2987
S'Qs'
p2988
aS'Tc'
p2989
atp2990
Rp2991
F0.574
sg1
((lp2992
S'4c'
p2993
aS'2c'
p2994
atp2995
Rp2996
F0.363
sg1
((lp2997
S'3h'
p2998
aS'Kd'
p2999
atp3000
Rp3001
F0.512
sg1
((lp3002
S'5c'
p3003
aS'2c'
p3004
atp3005
Rp3006
F0.375
sg1
((lp3007
S'9s'
p3008
aS'Td'
p3009
atp3010
Rp3011
F0.517
sg1
((lp3012
S'Ts'
p3013
aS'4s'
p3014
atp3015
Rp3016
F0.46399999999999997
sg1
((lp3017
S'Jd'
p3018
aS'9h'
p3019
atp3020
Rp3021
F0.534
sg1
((lp3022
S'6h'
p3023
aS'Js'
p3024
atp3025
Rp3026
F0.479
sg1
((lp3027
S'As'
p3028
aS'Kh'
p3029
atp3030
Rp3031
F0.654
sg1
((lp3032
S'3c'
p3033
aS'Qd'
p3034
atp3035
Rp3036
F0.479
sg1
((lp3037
S'7c'
p3038
aS'Jc'
p3039
atp3040
Rp3041
F0.524
sg1
((lp3042
S'3s'
p3043
aS'Qh'
p3044
atp3045
Rp3046
F0.479
sg1
((lp3047
S'Jd'
p3048
aS'2s'
p3049
atp3050
Rp3051
F0.44
sg1
((lp3052
S'6h'
p3053
aS'6d'
p3054
atp3055
Rp3056
F0.633
sg1
((lp3057
S'6c'
p3058
aS'Ts'
p3059
atp3060
Rp3061
F0.46299999999999997
sg1
((lp3062
S'5s'
p3063
aS'5c'
p3064
atp3065
Rp3066
F0.603
sg1
((lp3067
S'3s'
p3068
aS'9d'
p3069
atp3070
Rp3071
F0.39899999999999997
sg1
((lp3072
S'Kh'
p3073
aS'5s'
p3074
atp3075
Rp3076
F0.5329999999999999
sg1
((lp3077
S'9h'
p3078
aS'Jc'
p3079
atp3080
Rp3081
F0.534
sg1
((lp3082
S'Ah'
p3083
aS'4s'
p3084
atp3085
Rp3086
F0.564
sg1
((lp3087
S'6h'
p3088
aS'Tc'
p3089
atp3090
Rp3091
F0.46299999999999997
sg1
((lp3092
S'8h'
p3093
aS'9d'
p3094
atp3095
Rp3096
F0.484
sg1
((lp3097
S'Ah'
p3098
aS'5d'
p3099
atp3100
Rp3101
F0.5770000000000001
sg1
((lp3102
S'As'
p3103
aS'Kd'
p3104
atp3105
Rp3106
F0.654
sg1
((lp3107
S'5c'
p3108
aS'8d'
p3109
atp3110
Rp3111
F0.41700000000000004
sg1
((lp3112
S'4c'
p3113
aS'2s'
p3114
atp3115
Rp3116
F0.325
sg1
((lp3117
S'5d'
p3118
aS'7s'
p3119
atp3120
Rp3121
F0.408
sg1
((lp3122
S'Kc'
p3123
aS'Kh'
p3124
atp3125
Rp3126
F0.8240000000000001
sg1
((lp3127
S'7c'
p3128
aS'Ts'
p3129
atp3130
Rp3131
F0.48200000000000004
sg1
((lp3132
S'8c'
p3133
aS'9c'
p3134
atp3135
Rp3136
F0.511
sg1
((lp3137
S'Ah'
p3138
aS'Tc'
p3139
atp3140
Rp3141
F0.629
sg1
((lp3142
S'Td'
p3143
aS'Jc'
p3144
atp3145
Rp3146
F0.5539999999999999
sg1
((lp3147
S'7s'
p3148
aS'8d'
p3149
atp3150
Rp3151
F0.455
sg1
((lp3152
S'Jh'
p3153
aS'7h'
p3154
atp3155
Rp3156
F0.524
sg1
((lp3157
S'Qh'
p3158
aS'8s'
p3159
atp3160
Rp3161
F0.5379999999999999
sg1
((lp3162
S'5d'
p3163
aS'Js'
p3164
atp3165
Rp3166
F0.47100000000000003
sg1
((lp3167
S'4d'
p3168
aS'Tc'
p3169
atp3170
Rp3171
F0.434
sg1
((lp3172
S'Ah'
p3173
aS'9h'
p3174
atp3175
Rp3176
F0.63
sg1
((lp3177
S'Qs'
p3178
aS'3d'
p3179
atp3180
Rp3181
F0.479
sg1
((lp3182
S'Td'
p3183
aS'6s'
p3184
atp3185
Rp3186
F0.46299999999999997
sg1
((lp3187
S'9s'
p3188
aS'Ad'
p3189
atp3190
Rp3191
F0.609
sg1
((lp3192
S'Qc'
p3193
aS'Ts'
p3194
atp3195
Rp3196
F0.574
sg1
((lp3197
S'Tc'
p3198
aS'Js'
p3199
atp3200
Rp3201
F0.5539999999999999
sg1
((lp3202
S'Qh'
p3203
aS'Qd'
p3204
atp3205
Rp3206
F0.799
sg1
((lp3207
S'3c'
p3208
aS'5h'
p3209
atp3210
Rp3211
F0.358
sg1
((lp3212
S'6s'
p3213
aS'9d'
p3214
atp3215
Rp3216
F0.449
sg1
((lp3217
S'9c'
p3218
aS'8h'
p3219
atp3220
Rp3221
F0.484
sg1
((lp3222
S'8c'
p3223
aS'4d'
p3224
atp3225
Rp3226
F0.396
sg1
((lp3227
S'5d'
p3228
aS'4h'
p3229
atp3230
Rp3231
F0.379
sg1
((lp3232
S'Kc'
p3233
aS'2c'
p3234
atp3235
Rp3236
F0.529
sg1
((lp3237
S'Ah'
p3238
aS'2s'
p3239
atp3240
Rp3241
F0.546
sg1
((lp3242
S'Qs'
p3243
aS'4c'
p3244
atp3245
Rp3246
F0.49
sg1
((lp3247
S'Qs'
p3248
aS'Ad'
p3249
atp3250
Rp3251
F0.645
sg1
((lp3252
S'Ts'
p3253
aS'7h'
p3254
atp3255
Rp3256
F0.48200000000000004
sg1
((lp3257
S'Qs'
p3258
aS'Qd'
p3259
atp3260
Rp3261
F0.799
sg1
((lp3262
S'2d'
p3263
aS'Ah'
p3264
atp3265
Rp3266
F0.546
sg1
((lp3267
S'3c'
p3268
aS'7d'
p3269
atp3270
Rp3271
F0.366
sg1
((lp3272
S'6h'
p3273
aS'Qs'
p3274
atp3275
Rp3276
F0.511
sg1
((lp3277
S'8c'
p3278
aS'4s'
p3279
atp3280
Rp3281
F0.396
sg1
((lp3282
S'Kc'
p3283
aS'3d'
p3284
atp3285
Rp3286
F0.512
sg1
((lp3287
S'9d'
p3288
aS'3d'
p3289
atp3290
Rp3291
F0.43200000000000005
sg1
((lp3292
S'8c'
p3293
aS'7c'
p3294
atp3295
Rp3296
F0.48200000000000004
sg1
((lp3297
S'Kh'
p3298
aS'7d'
p3299
atp3300
Rp3301
F0.5539999999999999
sg1
((lp3302
S'6d'
p3303
aS'9d'
p3304
atp3305
Rp3306
F0.47700000000000004
sg1
((lp3307
S'5h'
p3308
aS'7h'
p3309
atp3310
Rp3311
F0.43799999999999994
sg1
((lp3312
S'Qh'
p3313
aS'9s'
p3314
atp3315
Rp3316
F0.555
sg1
((lp3317
S'Qh'
p3318
aS'4s'
p3319
atp3320
Rp3321
F0.49
sg1
((lp3322
S'7d'
p3323
aS'Qd'
p3324
atp3325
Rp3326
F0.545
sg1
((lp3327
S'4d'
p3328
aS'5h'
p3329
atp3330
Rp3331
F0.379
sg1
((lp3332
S'6c'
p3333
aS'7d'
p3334
atp3335
Rp3336
F0.42700000000000005
sg1
((lp3337
S'Jd'
p3338
aS'8c'
p3339
atp3340
Rp3341
F0.517
sg1
((lp3342
S'2d'
p3343
aS'Th'
p3344
atp3345
Rp3346
F0.415
sg1
((lp3347
S'3c'
p3348
aS'Kd'
p3349
atp3350
Rp3351
F0.512
sg1
((lp3352
S'7d'
p3353
aS'2c'
p3354
atp3355
Rp3356
F0.34600000000000003
sg1
((lp3357
S'6h'
p3358
aS'2d'
p3359
atp3360
Rp3361
F0.34
sg1
((lp3362
S'Qs'
p3363
aS'4d'
p3364
atp3365
Rp3366
F0.49
sg1
((lp3367
S'Qh'
p3368
aS'Qs'
p3369
atp3370
Rp3371
F0.799
sg1
((lp3372
S'Qd'
p3373
aS'Th'
p3374
atp3375
Rp3376
F0.574
sg1
((lp3377
S'9c'
p3378
aS'5s'
p3379
atp3380
Rp3381
F0.429
sg1
((lp3382
S'Th'
p3383
aS'2c'
p3384
atp3385
Rp3386
F0.415
sg1
((lp3387
S'4h'
p3388
aS'8d'
p3389
atp3390
Rp3391
F0.396
sg1
((lp3392
S'Ah'
p3393
aS'8s'
p3394
atp3395
Rp3396
F0.601
sg1
((lp3397
S'Qc'
p3398
aS'2h'
p3399
atp3400
Rp3401
F0.47
sg1
((lp3402
S'7d'
p3403
aS'7c'
p3404
atp3405
Rp3406
F0.662
sg1
((lp3407
S'Qc'
p3408
aS'3h'
p3409
atp3410
Rp3411
F0.479
sg1
((lp3412
S'Jh'
p3413
aS'Th'
p3414
atp3415
Rp3416
F0.575
sg1
((lp3417
S'9h'
p3418
aS'8s'
p3419
atp3420
Rp3421
F0.484
sg1
((lp3422
S'8s'
p3423
aS'9c'
p3424
atp3425
Rp3426
F0.484
sg1
((lp3427
S'Qh'
p3428
aS'Kh'
p3429
atp3430
Rp3431
F0.634
sg1
((lp3432
S'7d'
p3433
aS'Tc'
p3434
atp3435
Rp3436
F0.48200000000000004
sg1
((lp3437
S'Kc'
p3438
aS'4d'
p3439
atp3440
Rp3441
F0.521
sg1
((lp3442
S'Jd'
p3443
aS'Qc'
p3444
atp3445
Rp3446
F0.5820000000000001
sg1
((lp3447
S'Td'
p3448
aS'4d'
p3449
atp3450
Rp3451
F0.46399999999999997
sg1
((lp3452
S'9c'
p3453
aS'Tc'
p3454
atp3455
Rp3456
F0.5429999999999999
sg1
((lp3457
S'7d'
p3458
aS'Jh'
p3459
atp3460
Rp3461
F0.499
sg1
((lp3462
S'8h'
p3463
aS'5s'
p3464
atp3465
Rp3466
F0.41700000000000004
sg1
((lp3467
S'Th'
p3468
aS'3d'
p3469
atp3470
Rp3471
F0.424
sg1
((lp3472
S'Ah'
p3473
aS'Jc'
p3474
atp3475
Rp3476
F0.636
sg1
((lp3477
S'Qd'
p3478
aS'Tc'
p3479
atp3480
Rp3481
F0.574
sg1
((lp3482
S'Kc'
p3483
aS'8s'
p3484
atp3485
Rp3486
F0.563
sg1
((lp3487
S'5h'
p3488
aS'Jc'
p3489
atp3490
Rp3491
F0.47100000000000003
sg1
((lp3492
S'8h'
p3493
aS'2h'
p3494
atp3495
Rp3496
F0.40299999999999997
sg1
((lp3497
S'8s'
p3498
aS'Kd'
p3499
atp3500
Rp3501
F0.563
sg1
((lp3502
S'Jd'
p3503
aS'Kh'
p3504
atp3505
Rp3506
F0.606
sg1
((lp3507
S'7s'
p3508
aS'7c'
p3509
atp3510
Rp3511
F0.662
sg1
((lp3512
S'5h'
p3513
aS'4h'
p3514
atp3515
Rp3516
F0.41100000000000003
sg1
((lp3517
S'Ac'
p3518
aS'7s'
p3519
atp3520
Rp3521
F0.591
sg1
((lp3522
S'4d'
p3523
aS'Ts'
p3524
atp3525
Rp3526
F0.434
sg1
((lp3527
S'8d'
p3528
aS'2c'
p3529
atp3530
Rp3531
F0.368
sg1
((lp3532
S'8h'
p3533
aS'Ad'
p3534
atp3535
Rp3536
F0.601
sg1
((lp3537
S'2d'
p3538
aS'2s'
p3539
atp3540
Rp3541
F0.503
sg1
((lp3542
S'6c'
p3543
aS'4s'
p3544
atp3545
Rp3546
F0.38
sg1
((lp3547
S'3s'
p3548
aS'Ts'
p3549
atp3550
Rp3551
F0.455
sg1
((lp3552
S'3s'
p3553
aS'8s'
p3554
atp3555
Rp3556
F0.408
sg1
((lp3557
S'9s'
p3558
aS'4c'
p3559
atp3560
Rp3561
F0.40700000000000003
sg1
((lp3562
S'8h'
p3563
aS'6d'
p3564
atp3565
Rp3566
F0.436
sg1
((lp3567
S'Qh'
p3568
aS'3h'
p3569
atp3570
Rp3571
F0.507
sg1
((lp3572
S'3h'
p3573
aS'2c'
p3574
atp3575
Rp3576
F0.312
sg1
((lp3577
S'Qh'
p3578
aS'Jh'
p3579
atp3580
Rp3581
F0.603
sg1
((lp3582
S'8s'
p3583
aS'5c'
p3584
atp3585
Rp3586
F0.41700000000000004
sg1
((lp3587
S'Ks'
p3588
aS'6h'
p3589
atp3590
Rp3591
F0.5429999999999999
sg1
((lp3592
S'Ks'
p3593
aS'5s'
p3594
atp3595
Rp3596
F0.5579999999999999
sg1
((lp3597
S'9s'
p3598
aS'2c'
p3599
atp3600
Rp3601
F0.389
sg1
((lp3602
S'Kh'
p3603
aS'Th'
p3604
atp3605
Rp3606
F0.619
sg1
((lp3607
S'9h'
p3608
aS'Jh'
p3609
atp3610
Rp3611
F0.5579999999999999
sg1
((lp3612
S'9d'
p3613
aS'Kd'
p3614
atp3615
Rp3616
F0.6
sg1
((lp3617
S'Kh'
p3618
aS'7h'
p3619
atp3620
Rp3621
F0.578
sg1
((lp3622
S'Ks'
p3623
aS'9d'
p3624
atp3625
Rp3626
F0.58
sg1
((lp3627
S'Ks'
p3628
aS'As'
p3629
atp3630
Rp3631
F0.67
sg1
((lp3632
S'Jh'
p3633
aS'Jc'
p3634
atp3635
Rp3636
F0.775
sg1
((lp3637
S'9s'
p3638
aS'Kd'
p3639
atp3640
Rp3641
F0.58
sg1
((lp3642
S'Td'
p3643
aS'Jh'
p3644
atp3645
Rp3646
F0.5539999999999999
sg1
((lp3647
S'4s'
p3648
aS'8d'
p3649
atp3650
Rp3651
F0.396
sg1
((lp3652
S'Ah'
p3653
aS'4c'
p3654
atp3655
Rp3656
F0.564
sg1
((lp3657
S'6d'
p3658
aS'5c'
p3659
atp3660
Rp3661
F0.401
sg1
((lp3662
S'Qc'
p3663
aS'9d'
p3664
atp3665
Rp3666
F0.555
sg1
((lp3667
S'Ac'
p3668
aS'8h'
p3669
atp3670
Rp3671
F0.601
sg1
((lp3672
S'Qc'
p3673
aS'2c'
p3674
atp3675
Rp3676
F0.499
sg1
((lp3677
S'9h'
p3678
aS'4h'
p3679
atp3680
Rp3681
F0.43799999999999994
sg1
((lp3682
S'5s'
p3683
aS'Jc'
p3684
atp3685
Rp3686
F0.47100000000000003
sg1
((lp3687
S'Kh'
p3688
aS'5h'
p3689
atp3690
Rp3691
F0.5579999999999999
sg1
((lp3692
S'2s'
p3693
aS'3d'
p3694
atp3695
Rp3696
F0.312
sg1
((lp3697
S'Jd'
p3698
aS'5c'
p3699
atp3700
Rp3701
F0.47100000000000003
sg1
((lp3702
S'4d'
p3703
aS'2c'
p3704
atp3705
Rp3706
F0.325
sg1
((lp3707
S'Ah'
p3708
aS'Kh'
p3709
atp3710
Rp3711
F0.67
sg1
((lp3712
S'Kc'
p3713
aS'9c'
p3714
atp3715
Rp3716
F0.6
sg1
((lp3717
S'Qs'
p3718
aS'Kh'
p3719
atp3720
Rp3721
F0.614
sg1
((lp3722
S'6c'
p3723
aS'Ad'
p3724
atp3725
Rp3726
F0.578
sg1
((lp3727
S'4d'
p3728
aS'4h'
p3729
atp3730
Rp3731
F0.57
sg1
((lp3732
S'Ts'
p3733
aS'5h'
p3734
atp3735
Rp3736
F0.442
sg1
((lp3737
S'7s'
p3738
aS'Jc'
p3739
atp3740
Rp3741
F0.499
sg1
((lp3742
S'Jd'
p3743
aS'Ad'
p3744
atp3745
Rp3746
F0.654
sg1
((lp3747
S'9h'
p3748
aS'Kd'
p3749
atp3750
Rp3751
F0.58
sg1
((lp3752
S'6h'
p3753
aS'7d'
p3754
atp3755
Rp3756
F0.42700000000000005
sg1
((lp3757
S'Ac'
p3758
aS'7h'
p3759
atp3760
Rp3761
F0.591
sg1
((lp3762
S'4c'
p3763
aS'4s'
p3764
atp3765
Rp3766
F0.57
sg1
((lp3767
S'7s'
p3768
aS'7h'
p3769
atp3770
Rp3771
F0.662
sg1
((lp3772
S'Ah'
p3773
aS'Kd'
p3774
atp3775
Rp3776
F0.654
sg1
((lp3777
S'Qs'
p3778
aS'Th'
p3779
atp3780
Rp3781
F0.574
sg1
((lp3782
S'8c'
p3783
aS'6d'
p3784
atp3785
Rp3786
F0.436
sg1
((lp3787
S'4c'
p3788
aS'Th'
p3789
atp3790
Rp3791
F0.434
sg1
((lp3792
S'8c'
p3793
aS'6s'
p3794
atp3795
Rp3796
F0.436
sg1
((lp3797
S'8c'
p3798
aS'7d'
p3799
atp3800
Rp3801
F0.455
sg1
((lp3802
S'6s'
p3803
aS'Js'
p3804
atp3805
Rp3806
F0.508
sg1
((lp3807
S'Td'
p3808
aS'Kh'
p3809
atp3810
Rp3811
F0.599
sg1
((lp3812
S'2h'
p3813
aS'8d'
p3814
atp3815
Rp3816
F0.368
sg1
((lp3817
S'2c'
p3818
aS'3d'
p3819
atp3820
Rp3821
F0.312
sg1
((lp3822
S'9h'
p3823
aS'9c'
p3824
atp3825
Rp3826
F0.721
sg1
((lp3827
S'Qd'
p3828
aS'Jc'
p3829
atp3830
Rp3831
F0.5820000000000001
sg1
((lp3832
S'Ks'
p3833
aS'9c'
p3834
atp3835
Rp3836
F0.58
sg1
((lp3837
S'3h'
p3838
aS'Js'
p3839
atp3840
Rp3841
F0.45
sg1
((lp3842
S'5d'
p3843
aS'8d'
p3844
atp3845
Rp3846
F0.44799999999999995
sg1
((lp3847
S'Ac'
p3848
aS'Ts'
p3849
atp3850
Rp3851
F0.629
sg1
((lp3852
S'6s'
p3853
aS'5s'
p3854
atp3855
Rp3856
F0.43200000000000005
sg1
((lp3857
S'4h'
p3858
aS'Js'
p3859
atp3860
Rp3861
F0.461
sg1
((lp3862
S'Kc'
p3863
aS'Qs'
p3864
atp3865
Rp3866
F0.614
sg1
((lp3867
S'Td'
p3868
aS'9d'
p3869
atp3870
Rp3871
F0.5429999999999999
sg1
((lp3872
S'As'
p3873
aS'Td'
p3874
atp3875
Rp3876
F0.629
sg1
((lp3877
S'Tc'
p3878
aS'5c'
p3879
atp3880
Rp3881
F0.47200000000000003
sg1
((lp3882
S'Qh'
p3883
aS'2h'
p3884
atp3885
Rp3886
F0.499
sg1
((lp3887
S'Ks'
p3888
aS'3h'
p3889
atp3890
Rp3891
F0.512
sg1
((lp3892
S'2d'
p3893
aS'6s'
p3894
atp3895
Rp3896
F0.34
sg1
((lp3897
S'5d'
p3898
aS'7d'
p3899
atp3900
Rp3901
F0.43799999999999994
sg1
((lp3902
S'Kc'
p3903
aS'9d'
p3904
atp3905
Rp3906
F0.58
sg1
((lp3907
S'5d'
p3908
aS'5c'
p3909
atp3910
Rp3911
F0.603
sg1
((lp3912
S'7s'
p3913
aS'4h'
p3914
atp3915
Rp3916
F0.386
sg1
((lp3917
S'4s'
p3918
aS'5c'
p3919
atp3920
Rp3921
F0.379
sg1
((lp3922
S'As'
p3923
aS'Jc'
p3924
atp3925
Rp3926
F0.636
sg1
((lp3927
S'Qs'
p3928
aS'9d'
p3929
atp3930
Rp3931
F0.555
sg1
((lp3932
S'As'
p3933
aS'Qs'
p3934
atp3935
Rp3936
F0.6609999999999999
sg1
((lp3937
S'Jd'
p3938
aS'8d'
p3939
atp3940
Rp3941
F0.542
sg1
((lp3942
S'3s'
p3943
aS'Kd'
p3944
atp3945
Rp3946
F0.512
sg1
((lp3947
S'Kh'
p3948
aS'Js'
p3949
atp3950
Rp3951
F0.606
sg1
((lp3952
S'5d'
p3953
aS'4d'
p3954
atp3955
Rp3956
F0.41100000000000003
sg1
((lp3957
S'3c'
p3958
aS'7s'
p3959
atp3960
Rp3961
F0.366
sg1
((lp3962
S'Qh'
p3963
aS'8c'
p3964
atp3965
Rp3966
F0.5379999999999999
sg1
((lp3967
S'Kh'
p3968
aS'5c'
p3969
atp3970
Rp3971
F0.5329999999999999
sg1
((lp3972
S'Jd'
p3973
aS'Jc'
p3974
atp3975
Rp3976
F0.775
sg1
((lp3977
S'7c'
p3978
aS'2s'
p3979
atp3980
Rp3981
F0.34600000000000003
sg1
((lp3982
S'9s'
p3983
aS'Jc'
p3984
atp3985
Rp3986
F0.534
sg1
((lp3987
S'3c'
p3988
aS'Ac'
p3989
atp3990
Rp3991
F0.58
sg1
((lp3992
S'Qs'
p3993
aS'4h'
p3994
atp3995
Rp3996
F0.49
sg1
((lp3997
S'6h'
p3998
aS'6c'
p3999
atp4000
Rp4001
F0.633
sg1
((lp4002
S'Ac'
p4003
aS'2s'
p4004
atp4005
Rp4006
F0.546
sg1
((lp4007
S'6h'
p4008
aS'5s'
p4009
atp4010
Rp4011
F0.401
sg1
((lp4012
S'Qc'
p4013
aS'5c'
p4014
atp4015
Rp4016
F0.529
sg1
((lp4017
S'8h'
p4018
aS'3h'
p4019
atp4020
Rp4021
F0.408
sg1
((lp4022
S'Kc'
p4023
aS'Jd'
p4024
atp4025
Rp4026
F0.606
sg1
((lp4027
S'As'
p4028
aS'7h'
p4029
atp4030
Rp4031
F0.591
sg1
((lp4032
S'4c'
p4033
aS'3d'
p4034
atp4035
Rp4036
F0.344
sg1
((lp4037
S'7c'
p4038
aS'8d'
p4039
atp4040
Rp4041
F0.455
sg1
((lp4042
S'9c'
p4043
aS'5h'
p4044
atp4045
Rp4046
F0.429
sg1
((lp4047
S'6d'
p4048
aS'Qd'
p4049
atp4050
Rp4051
F0.5379999999999999
sg1
((lp4052
S'6c'
p4053
aS'3h'
p4054
atp4055
Rp4056
F0.359
sg1
((lp4057
S'Qc'
p4058
aS'5s'
p4059
atp4060
Rp4061
F0.502
sg1
((lp4062
S'6h'
p4063
aS'8c'
p4064
atp4065
Rp4066
F0.436
sg1
((lp4067
S'4h'
p4068
aS'Th'
p4069
atp4070
Rp4071
F0.46399999999999997
sg1
((lp4072
S'Kc'
p4073
aS'3s'
p4074
atp4075
Rp4076
F0.512
sg1
((lp4077
S'3s'
p4078
aS'3d'
p4079
atp4080
Rp4081
F0.537
sg1
((lp4082
S'6c'
p4083
aS'Js'
p4084
atp4085
Rp4086
F0.479
sg1
((lp4087
S'9s'
p4088
aS'Js'
p4089
atp4090
Rp4091
F0.5579999999999999
sg1
((lp4092
S'8c'
p4093
aS'Kd'
p4094
atp4095
Rp4096
F0.563
sg1
((lp4097
S'Jh'
p4098
aS'Js'
p4099
atp4100
Rp4101
F0.775
sg1
((lp4102
S'9d'
p4103
aS'4s'
p4104
atp4105
Rp4106
F0.40700000000000003
sg1
((lp4107
S'6c'
p4108
aS'8d'
p4109
atp4110
Rp4111
F0.436
sg1
((lp4112
S'Ac'
p4113
aS'6d'
p4114
atp4115
Rp4116
F0.578
sg1
((lp4117
S'Ah'
p4118
aS'8h'
p4119
atp4120
Rp4121
F0.621
sg1
((lp4122
S'2h'
p4123
aS'Jc'
p4124
atp4125
Rp4126
F0.44
sg1
((lp4127
S'6c'
p4128
aS'Jh'
p4129
atp4130
Rp4131
F0.479
sg1
((lp4132
S'9h'
p4133
aS'6s'
p4134
atp4135
Rp4136
F0.449
sg1
((lp4137
S'6h'
p4138
aS'Jc'
p4139
atp4140
Rp4141
F0.479
sg1
((lp4142
S'2h'
p4143
aS'4h'
p4144
atp4145
Rp4146
F0.363
sg1
((lp4147
S'Kc'
p4148
aS'6s'
p4149
atp4150
Rp4151
F0.5429999999999999
sg1
((lp4152
S'9c'
p4153
aS'Td'
p4154
atp4155
Rp4156
F0.517
sg1
((lp4157
S'3s'
p4158
aS'Ah'
p4159
atp4160
Rp4161
F0.556
sg1
((lp4162
S'6d'
p4163
aS'7h'
p4164
atp4165
Rp4166
F0.42700000000000005
sg1
((lp4167
S'Jd'
p4168
aS'Qd'
p4169
atp4170
Rp4171
F0.603
sg1
((lp4172
S'3h'
p4173
aS'Ts'
p4174
atp4175
Rp4176
F0.424
sg1
((lp4177
S'3c'
p4178
aS'3s'
p4179
atp4180
Rp4181
F0.537
sg1
((lp4182
S'8h'
p4183
aS'Th'
p4184
atp4185
Rp4186
F0.526
sg1
((lp4187
S'5c'
p4188
aS'Jc'
p4189
atp4190
Rp4191
F0.5
sg1
((lp4192
S'9c'
p4193
aS'Jc'
p4194
atp4195
Rp4196
F0.5579999999999999
sg1
((lp4197
S'Jd'
p4198
aS'5s'
p4199
atp4200
Rp4201
F0.47100000000000003
sg1
((lp4202
S'Ac'
p4203
aS'5s'
p4204
atp4205
Rp4206
F0.5770000000000001
sg1
((lp4207
S'9h'
p4208
aS'2h'
p4209
atp4210
Rp4211
F0.423
sg1
((lp4212
S'Ac'
p4213
aS'Qd'
p4214
atp4215
Rp4216
F0.645
sg1
((lp4217
S'Kh'
p4218
aS'8d'
p4219
atp4220
Rp4221
F0.563
sg1
((lp4222
S'3s'
p4223
aS'Th'
p4224
atp4225
Rp4226
F0.424
sg1
((lp4227
S'6c'
p4228
aS'Qd'
p4229
atp4230
Rp4231
F0.511
sg1
((lp4232
S'9s'
p4233
aS'5c'
p4234
atp4235
Rp4236
F0.429
sg1
((lp4237
S'6s'
p4238
aS'4h'
p4239
atp4240
Rp4241
F0.38
sg1
((lp4242
S'5d'
p4243
aS'5h'
p4244
atp4245
Rp4246
F0.603
sg1
((lp4247
S'Ac'
p4248
aS'As'
p4249
atp4250
Rp4251
F0.853
sg1
((lp4252
S'8h'
p4253
aS'6c'
p4254
atp4255
Rp4256
F0.436
sg1
((lp4257
S'9d'
p4258
aS'Ts'
p4259
atp4260
Rp4261
F0.517
sg1
((lp4262
S'6h'
p4263
aS'2s'
p4264
atp4265
Rp4266
F0.34
sg1
((lp4267
S'5c'
p4268
aS'Th'
p4269
atp4270
Rp4271
F0.442
sg1
((lp4272
S'Jd'
p4273
aS'4h'
p4274
atp4275
Rp4276
F0.461
sg1
((lp4277
S'8s'
p4278
aS'4d'
p4279
atp4280
Rp4281
F0.396
sg1
((lp4282
S'4c'
p4283
aS'4h'
p4284
atp4285
Rp4286
F0.57
sg1
((lp4287
S'8h'
p4288
aS'Kd'
p4289
atp4290
Rp4291
F0.563
sg1
((lp4292
S'Kh'
p4293
aS'Ts'
p4294
atp4295
Rp4296
F0.599
sg1
((lp4297
S'9c'
p4298
aS'8d'
p4299
atp4300
Rp4301
F0.484
sg1
((lp4302
S'3c'
p4303
aS'9d'
p4304
atp4305
Rp4306
F0.39899999999999997
sg1
((lp4307
S'8s'
p4308
aS'Js'
p4309
atp4310
Rp4311
F0.542
sg1
((lp4312
S'3s'
p4313
aS'2d'
p4314
atp4315
Rp4316
F0.312
sg1
((lp4317
S'9h'
p4318
aS'8c'
p4319
atp4320
Rp4321
F0.484
sg1
((lp4322
S'6h'
p4323
aS'Jd'
p4324
atp4325
Rp4326
F0.479
sg1
((lp4327
S'Qh'
p4328
aS'8d'
p4329
atp4330
Rp4331
F0.5379999999999999
sg1
((lp4332
S'Ks'
p4333
aS'4d'
p4334
atp4335
Rp4336
F0.521
sg1
((lp4337
S'Qh'
p4338
aS'4h'
p4339
atp4340
Rp4341
F0.517
sg1
((lp4342
S'3h'
p4343
aS'8d'
p4344
atp4345
Rp4346
F0.375
sg1
((lp4347
S'Ks'
p4348
aS'2c'
p4349
atp4350
Rp4351
F0.502
sg1
((lp4352
S'2d'
p4353
aS'Ts'
p4354
atp4355
Rp4356
F0.415
sg1
((lp4357
S'Ks'
p4358
aS'Qc'
p4359
atp4360
Rp4361
F0.614
sg1
((lp4362
S'Qc'
p4363
aS'Qd'
p4364
atp4365
Rp4366
F0.799
sg1
((lp4367
S'Ks'
p4368
aS'8s'
p4369
atp4370
Rp4371
F0.585
sg1
((lp4372
S'Tc'
p4373
aS'2s'
p4374
atp4375
Rp4376
F0.415
sg1
((lp4377
S'3c'
p4378
aS'Jc'
p4379
atp4380
Rp4381
F0.479
sg1
((lp4382
S'8c'
p4383
aS'5c'
p4384
atp4385
Rp4386
F0.44799999999999995
sg1
((lp4387
S'Ah'
p4388
aS'Th'
p4389
atp4390
Rp4391
F0.647
sg1
((lp4392
S'Jc'
p4393
aS'3d'
p4394
atp4395
Rp4396
F0.45
sg1
((lp4397
S'Ks'
p4398
aS'Kh'
p4399
atp4400
Rp4401
F0.8240000000000001
sg1
((lp4402
S'Qs'
p4403
aS'6d'
p4404
atp4405
Rp4406
F0.511
sg1
((lp4407
S'9h'
p4408
aS'9s'
p4409
atp4410
Rp4411
F0.721
sg1
((lp4412
S'2d'
p4413
aS'6c'
p4414
atp4415
Rp4416
F0.34
sg1
((lp4417
S'3c'
p4418
aS'9c'
p4419
atp4420
Rp4421
F0.43200000000000005
sg1
((lp4422
S'9h'
p4423
aS'Th'
p4424
atp4425
Rp4426
F0.5429999999999999
sg1
((lp4427
S'Td'
p4428
aS'3h'
p4429
atp4430
Rp4431
F0.424
sg1
((lp4432
S'Jh'
p4433
aS'Ts'
p4434
atp4435
Rp4436
F0.5539999999999999
sg1
((lp4437
S'Ah'
p4438
aS'9s'
p4439
atp4440
Rp4441
F0.609
sg1
((lp4442
S'6d'
p4443
aS'4c'
p4444
atp4445
Rp4446
F0.38
sg1
((lp4447
S'7c'
p4448
aS'7h'
p4449
atp4450
Rp4451
F0.662
sg1
((lp4452
S'3h'
p4453
aS'7d'
p4454
atp4455
Rp4456
F0.366
sg1
((lp4457
S'Qh'
p4458
aS'6s'
p4459
atp4460
Rp4461
F0.511
sg1
((lp4462
S'3s'
p4463
aS'Ad'
p4464
atp4465
Rp4466
F0.556
sg1
((lp4467
S'Ac'
p4468
aS'Ad'
p4469
atp4470
Rp4471
F0.853
sg1
((lp4472
S'6s'
p4473
aS'2h'
p4474
atp4475
Rp4476
F0.34
sg1
((lp4477
S'3h'
p4478
aS'9d'
p4479
atp4480
Rp4481
F0.39899999999999997
sg1
((lp4482
S'Th'
p4483
aS'2s'
p4484
atp4485
Rp4486
F0.415
sg1
((lp4487
S'Jh'
p4488
aS'5h'
p4489
atp4490
Rp4491
F0.5
sg1
((lp4492
S'4s'
p4493
aS'Js'
p4494
atp4495
Rp4496
F0.49
sg1
((lp4497
S'9c'
p4498
aS'Qs'
p4499
atp4500
Rp4501
F0.555
sg1
((lp4502
S'9s'
p4503
aS'Th'
p4504
atp4505
Rp4506
F0.517
sg1
((lp4507
S'Qh'
p4508
aS'7s'
p4509
atp4510
Rp4511
F0.519
sg1
((lp4512
S'9s'
p4513
aS'Qc'
p4514
atp4515
Rp4516
F0.555
sg1
((lp4517
S'3s'
p4518
aS'2c'
p4519
atp4520
Rp4521
F0.312
sg1
((lp4522
S'Kh'
p4523
aS'Kd'
p4524
atp4525
Rp4526
F0.8240000000000001
sg1
((lp4527
S'Jd'
p4528
aS'Ts'
p4529
atp4530
Rp4531
F0.5539999999999999
sg1
((lp4532
S'Js'
p4533
aS'2s'
p4534
atp4535
Rp4536
F0.47100000000000003
sg1
((lp4537
S'Kh'
p4538
aS'4h'
p4539
atp4540
Rp4541
F0.547
sg1
((lp4542
S'Ts'
p4543
aS'Jc'
p4544
atp4545
Rp4546
F0.5539999999999999
sg1
((lp4547
S'6s'
p4548
aS'6d'
p4549
atp4550
Rp4551
F0.633
sg1
((lp4552
S'8h'
p4553
aS'5c'
p4554
atp4555
Rp4556
F0.41700000000000004
sg1
((lp4557
S'Kc'
p4558
aS'4c'
p4559
atp4560
Rp4561
F0.547
sg1
((lp4562
S'5h'
p4563
aS'5c'
p4564
atp4565
Rp4566
F0.603
sg1
((lp4567
S'Jd'
p4568
aS'6s'
p4569
atp4570
Rp4571
F0.479
sg1
((lp4572
S'6d'
p4573
aS'Ts'
p4574
atp4575
Rp4576
F0.46299999999999997
sg1
((lp4577
S'Ts'
p4578
aS'2s'
p4579
atp4580
Rp4581
F0.447
sg1
((lp4582
S'Qh'
p4583
aS'Td'
p4584
atp4585
Rp4586
F0.574
sg1
((lp4587
S'5d'
p4588
aS'Kh'
p4589
atp4590
Rp4591
F0.5329999999999999
sg1
((lp4592
S'3c'
p4593
aS'5d'
p4594
atp4595
Rp4596
F0.358
sg1
((lp4597
S'2h'
p4598
aS'9d'
p4599
atp4600
Rp4601
F0.389
sg1
((lp4602
S'As'
p4603
aS'7s'
p4604
atp4605
Rp4606
F0.611
sg1
((lp4607
S'Tc'
p4608
aS'4h'
p4609
atp4610
Rp4611
F0.434
sg1
((lp4612
S'3c'
p4613
aS'Jh'
p4614
atp4615
Rp4616
F0.45
sg1
((lp4617
S'Qc'
p4618
aS'7d'
p4619
atp4620
Rp4621
F0.519
sg1
((lp4622
S'Qs'
p4623
aS'9s'
p4624
atp4625
Rp4626
F0.579
sg1
((lp4627
S'Qd'
p4628
aS'4c'
p4629
atp4630
Rp4631
F0.49
sg1
((lp4632
S'3s'
p4633
aS'2s'
p4634
atp4635
Rp4636
F0.35100000000000003
sg1
((lp4637
S'Qs'
p4638
aS'2h'
p4639
atp4640
Rp4641
F0.47
sg1
((lp4642
S'6c'
p4643
aS'2c'
p4644
atp4645
Rp4646
F0.375
sg1
((lp4647
S'3h'
p4648
aS'Th'
p4649
atp4650
Rp4651
F0.455
sg1
((lp4652
S'8s'
p4653
aS'Th'
p4654
atp4655
Rp4656
F0.5
sg1
((lp4657
S'5h'
p4658
aS'2c'
p4659
atp4660
Rp4661
F0.33899999999999997
sg1
((lp4662
S'Kc'
p4663
aS'4h'
p4664
atp4665
Rp4666
F0.521
sg1
((lp4667
S'5d'
p4668
aS'Ac'
p4669
atp4670
Rp4671
F0.5770000000000001
sg1
((lp4672
S'Ah'
p4673
aS'7h'
p4674
atp4675
Rp4676
F0.611
sg1
((lp4677
S'Qc'
p4678
aS'5h'
p4679
atp4680
Rp4681
F0.502
sg1
((lp4682
S'3d'
p4683
aS'Kd'
p4684
atp4685
Rp4686
F0.5379999999999999
sg1
((lp4687
S'Jh'
p4688
aS'Tc'
p4689
atp4690
Rp4691
F0.5539999999999999
sg1
((lp4692
S'Ts'
p4693
aS'5s'
p4694
atp4695
Rp4696
F0.47200000000000003
sg1
((lp4697
S'Ks'
p4698
aS'6d'
p4699
atp4700
Rp4701
F0.5429999999999999
sg1
((lp4702
S'6h'
p4703
aS'Ts'
p4704
atp4705
Rp4706
F0.46299999999999997
sg1
((lp4707
S'Ac'
p4708
aS'Tc'
p4709
atp4710
Rp4711
F0.647
sg1
((lp4712
S'2h'
p4713
aS'7h'
p4714
atp4715
Rp4716
F0.381
sg1
((lp4717
S'Qc'
p4718
aS'7s'
p4719
atp4720
Rp4721
F0.519
sg1
((lp4722
S'3s'
p4723
aS'8d'
p4724
atp4725
Rp4726
F0.375
sg1
((lp4727
S'3c'
p4728
aS'4s'
p4729
atp4730
Rp4731
F0.344
sg1
((lp4732
S'5d'
p4733
aS'Jh'
p4734
atp4735
Rp4736
F0.47100000000000003
sg1
((lp4737
S'Jh'
p4738
aS'Kd'
p4739
atp4740
Rp4741
F0.606
sg1
((lp4742
S'Ad'
p4743
aS'5c'
p4744
atp4745
Rp4746
F0.5770000000000001
sg1
((lp4747
S'3s'
p4748
aS'4c'
p4749
atp4750
Rp4751
F0.344
sg1
((lp4752
S'3h'
p4753
aS'7h'
p4754
atp4755
Rp4756
F0.4
sg1
((lp4757
S'6c'
p4758
aS'Th'
p4759
atp4760
Rp4761
F0.46299999999999997
sg1
((lp4762
S'3c'
p4763
aS'Kh'
p4764
atp4765
Rp4766
F0.512
sg1
((lp4767
S'As'
p4768
aS'8h'
p4769
atp4770
Rp4771
F0.601
sg1
((lp4772
S'Qd'
p4773
aS'Kd'
p4774
atp4775
Rp4776
F0.634
sg1
((lp4777
S'4d'
p4778
aS'7s'
p4779
atp4780
Rp4781
F0.386
sg1
((lp4782
S'5d'
p4783
aS'Qd'
p4784
atp4785
Rp4786
F0.529
sg1
((lp4787
S'Ac'
p4788
aS'7d'
p4789
atp4790
Rp4791
F0.591
sg1
((lp4792
S'Qd'
p4793
aS'4s'
p4794
atp4795
Rp4796
F0.49
sg1
((lp4797
S'2d'
p4798
aS'5d'
p4799
atp4800
Rp4801
F0.375
sg1
((lp4802
S'3c'
p4803
aS'Th'
p4804
atp4805
Rp4806
F0.424
sg1
((lp4807
S'Kh'
p4808
aS'Jh'
p4809
atp4810
Rp4811
F0.626
sg1
((lp4812
S'3h'
p4813
aS'Ad'
p4814
atp4815
Rp4816
F0.556
sg1
((lp4817
S'4d'
p4818
aS'5s'
p4819
atp4820
Rp4821
F0.379
sg1
((lp4822
S'Td'
p4823
aS'7h'
p4824
atp4825
Rp4826
F0.48200000000000004
sg1
((lp4827
S'9c'
p4828
aS'9d'
p4829
atp4830
Rp4831
F0.721
sg1
((lp4832
S'7c'
p4833
aS'4c'
p4834
atp4835
Rp4836
F0.418
sg1
((lp4837
S'Qs'
p4838
aS'3h'
p4839
atp4840
Rp4841
F0.479
sg1
((lp4842
S'Jd'
p4843
aS'9c'
p4844
atp4845
Rp4846
F0.534
sg1
((lp4847
S'Jd'
p4848
aS'7d'
p4849
atp4850
Rp4851
F0.524
sg1
((lp4852
S'Jh'
p4853
aS'8d'
p4854
atp4855
Rp4856
F0.517
sg1
((lp4857
S'7d'
p4858
aS'Jc'
p4859
atp4860
Rp4861
F0.499
sg1
((lp4862
S'Kc'
p4863
aS'2d'
p4864
atp4865
Rp4866
F0.502
sg1
((lp4867
S'4d'
p4868
aS'Jc'
p4869
atp4870
Rp4871
F0.461
sg1
((lp4872
S'3s'
p4873
aS'5s'
p4874
atp4875
Rp4876
F0.39299999999999996
sg1
((lp4877
S'4d'
p4878
aS'6d'
p4879
atp4880
Rp4881
F0.414
sg1
((lp4882
S'7d'
p4883
aS'9d'
p4884
atp4885
Rp4886
F0.495
sg1
((lp4887
S'6c'
p4888
aS'5s'
p4889
atp4890
Rp4891
F0.401
sg1
((lp4892
S'3h'
p4893
aS'5c'
p4894
atp4895
Rp4896
F0.358
sg1
((lp4897
S'Jh'
p4898
aS'3d'
p4899
atp4900
Rp4901
F0.45
sg1
((lp4902
S'Kc'
p4903
aS'Ah'
p4904
atp4905
Rp4906
F0.654
sg1
((lp4907
S'9d'
p4908
aS'4c'
p4909
atp4910
Rp4911
F0.40700000000000003
sg1
((lp4912
S'Qh'
p4913
aS'6c'
p4914
atp4915
Rp4916
F0.511
sg1
((lp4917
S'Kc'
p4918
aS'5h'
p4919
atp4920
Rp4921
F0.5329999999999999
sg1
((lp4922
S'9c'
p4923
aS'Ad'
p4924
atp4925
Rp4926
F0.609
sg1
((lp4927
S'Kc'
p4928
aS'9h'
p4929
atp4930
Rp4931
F0.58
sg1
((lp4932
S'6h'
p4933
aS'4c'
p4934
atp4935
Rp4936
F0.38
sg1
((lp4937
S'8c'
p4938
aS'Ac'
p4939
atp4940
Rp4941
F0.621
sg1
((lp4942
S'Ks'
p4943
aS'2h'
p4944
atp4945
Rp4946
F0.502
sg1
((lp4947
S'5c'
p4948
aS'7h'
p4949
atp4950
Rp4951
F0.408
sg1
((lp4952
S'Ah'
p4953
aS'5s'
p4954
atp4955
Rp4956
F0.5770000000000001
sg1
((lp4957
S'7c'
p4958
aS'Tc'
p4959
atp4960
Rp4961
F0.51
sg1
((lp4962
S'Td'
p4963
aS'7c'
p4964
atp4965
Rp4966
F0.48200000000000004
sg1
((lp4967
S'Tc'
p4968
aS'8d'
p4969
atp4970
Rp4971
F0.5
sg1
((lp4972
S'Kc'
p4973
aS'7c'
p4974
atp4975
Rp4976
F0.578
sg1
((lp4977
S'7d'
p4978
aS'4h'
p4979
atp4980
Rp4981
F0.386
sg1
((lp4982
S'2d'
p4983
aS'4c'
p4984
atp4985
Rp4986
F0.325
sg1
((lp4987
S'Ks'
p4988
aS'6c'
p4989
atp4990
Rp4991
F0.5429999999999999
sg1
((lp4992
S'3s'
p4993
aS'7s'
p4994
atp4995
Rp4996
F0.4
sg1
((lp4997
S'3c'
p4998
aS'Qh'
p4999
atp5000
Rp5001
F0.479
sg1
((lp5002
S'Ah'
p5003
aS'6c'
p5004
atp5005
Rp5006
F0.578
sg1
((lp5007
S'Ah'
p5008
aS'As'
p5009
atp5010
Rp5011
F0.853
sg1
((lp5012
S'Kc'
p5013
aS'Ac'
p5014
atp5015
Rp5016
F0.67
sg1
((lp5017
S'As'
p5018
aS'5h'
p5019
atp5020
Rp5021
F0.5770000000000001
sg1
((lp5022
S'3s'
p5023
aS'Js'
p5024
atp5025
Rp5026
F0.479
sg1
((lp5027
S'Jd'
p5028
aS'7c'
p5029
atp5030
Rp5031
F0.499
sg1
((lp5032
S'4c'
p5033
aS'5c'
p5034
atp5035
Rp5036
F0.41100000000000003
sg1
((lp5037
S'2d'
p5038
aS'Ad'
p5039
atp5040
Rp5041
F0.57
sg1
((lp5042
S'Kc'
p5043
aS'9s'
p5044
atp5045
Rp5046
F0.58
sg1
((lp5047
S'7s'
p5048
aS'Js'
p5049
atp5050
Rp5051
F0.524
sg1
((lp5052
S'6h'
p5053
aS'3d'
p5054
atp5055
Rp5056
F0.359
sg1
((lp5057
S'9s'
p5058
aS'Ts'
p5059
atp5060
Rp5061
F0.5429999999999999
sg1
((lp5062
S'3h'
p5063
aS'Tc'
p5064
atp5065
Rp5066
F0.424
sg1
((lp5067
S'Ad'
p5068
aS'9d'
p5069
atp5070
Rp5071
F0.63
sg1
((lp5072
S'5d'
p5073
aS'3h'
p5074
atp5075
Rp5076
F0.358
sg1
((lp5077
S'5h'
p5078
aS'3d'
p5079
atp5080
Rp5081
F0.358
sg1
((lp5082
S'9s'
p5083
aS'7d'
p5084
atp5085
Rp5086
F0.467
sg1
((lp5087
S'As'
p5088
aS'Th'
p5089
atp5090
Rp5091
F0.629
sg1
((lp5092
S'2d'
p5093
aS'4d'
p5094
atp5095
Rp5096
F0.363
sg1
((lp5097
S'Ts'
p5098
aS'4c'
p5099
atp5100
Rp5101
F0.434
sg1
((lp5102
S'Qc'
p5103
aS'4s'
p5104
atp5105
Rp5106
F0.49
sg1
((lp5107
S'5h'
p5108
aS'Kd'
p5109
atp5110
Rp5111
F0.5329999999999999
sg1
((lp5112
S'9d'
p5113
aS'4h'
p5114
atp5115
Rp5116
F0.40700000000000003
sg1
((lp5117
S'Ac'
p5118
aS'5c'
p5119
atp5120
Rp5121
F0.599
sg1
((lp5122
S'8d'
p5123
aS'2s'
p5124
atp5125
Rp5126
F0.368
sg1
((lp5127
S'3c'
p5128
aS'4d'
p5129
atp5130
Rp5131
F0.344
sg1
((lp5132
S'As'
p5133
aS'9s'
p5134
atp5135
Rp5136
F0.63
sg1
((lp5137
S'2d'
p5138
aS'5c'
p5139
atp5140
Rp5141
F0.33899999999999997
sg1
((lp5142
S'9h'
p5143
aS'Kh'
p5144
atp5145
Rp5146
F0.6
sg1
((lp5147
S'Ks'
p5148
aS'Jc'
p5149
atp5150
Rp5151
F0.606
sg1
((lp5152
S'3c'
p5153
aS'Ad'
p5154
atp5155
Rp5156
F0.556
sg1
((lp5157
S'5d'
p5158
aS'8h'
p5159
atp5160
Rp5161
F0.41700000000000004
sg1
((lp5162
S'7h'
p5163
aS'2c'
p5164
atp5165
Rp5166
F0.34600000000000003
sg1
((lp5167
S'8c'
p5168
aS'Qs'
p5169
atp5170
Rp5171
F0.5379999999999999
sg1
((lp5172
S'3s'
p5173
aS'Qs'
p5174
atp5175
Rp5176
F0.507
sg1
((lp5177
S'9c'
p5178
aS'2c'
p5179
atp5180
Rp5181
F0.423
sg1
((lp5182
S'Kh'
p5183
aS'Tc'
p5184
atp5185
Rp5186
F0.599
sg1
((lp5187
S'5d'
p5188
aS'2h'
p5189
atp5190
Rp5191
F0.33899999999999997
sg1
((lp5192
S'7c'
p5193
aS'Js'
p5194
atp5195
Rp5196
F0.499
sg1
((lp5197
S'3s'
p5198
aS'5c'
p5199
atp5200
Rp5201
F0.358
sg1
((lp5202
S'Ad'
p5203
aS'8d'
p5204
atp5205
Rp5206
F0.621
sg1
((lp5207
S'Kc'
p5208
aS'2h'
p5209
atp5210
Rp5211
F0.502
sg1
((lp5212
S'8c'
p5213
aS'Th'
p5214
atp5215
Rp5216
F0.5
sg1
((lp5217
S'4d'
p5218
aS'Jh'
p5219
atp5220
Rp5221
F0.461
sg1
((lp5222
S'Qh'
p5223
aS'5s'
p5224
atp5225
Rp5226
F0.502
sg1
((lp5227
S'Kc'
p5228
aS'6h'
p5229
atp5230
Rp5231
F0.5429999999999999
sg1
((lp5232
S'Ad'
p5233
aS'Jc'
p5234
atp5235
Rp5236
F0.636
sg1
((lp5237
S'8c'
p5238
aS'3d'
p5239
atp5240
Rp5241
F0.375
sg1
((lp5242
S'6s'
p5243
aS'Jc'
p5244
atp5245
Rp5246
F0.479
sg1
((lp5247
S'Kh'
p5248
aS'4s'
p5249
atp5250
Rp5251
F0.521
sg1
((lp5252
S'Ah'
p5253
aS'3h'
p5254
atp5255
Rp5256
F0.58
sg1
((lp5257
S'Qh'
p5258
aS'As'
p5259
atp5260
Rp5261
F0.645
sg1
((lp5262
S'6h'
p5263
aS'Qd'
p5264
atp5265
Rp5266
F0.511
sg1
((lp5267
S'8s'
p5268
aS'7h'
p5269
atp5270
Rp5271
F0.455
sg1
((lp5272
S'Jh'
p5273
aS'2s'
p5274
atp5275
Rp5276
F0.44
sg1
((lp5277
S'Qc'
p5278
aS'Js'
p5279
atp5280
Rp5281
F0.5820000000000001
sg1
((lp5282
S'9h'
p5283
aS'3h'
p5284
atp5285
Rp5286
F0.43200000000000005
sg1
((lp5287
S'3c'
p5288
aS'8h'
p5289
atp5290
Rp5291
F0.375
sg1
((lp5292
S'6s'
p5293
aS'7h'
p5294
atp5295
Rp5296
F0.42700000000000005
sg1
((lp5297
S'2h'
p5298
aS'Qd'
p5299
atp5300
Rp5301
F0.47
sg1
((lp5302
S'3s'
p5303
aS'8h'
p5304
atp5305
Rp5306
F0.375
sg1
((lp5307
S'3h'
p5308
aS'4h'
p5309
atp5310
Rp5311
F0.38
sg1
((lp5312
S'2h'
p5313
aS'4c'
p5314
atp5315
Rp5316
F0.325
sg1
((lp5317
S'Qs'
p5318
aS'7s'
p5319
atp5320
Rp5321
F0.545
sg1
((lp5322
S'6s'
p5323
aS'Ts'
p5324
atp5325
Rp5326
F0.49200000000000005
sg1
((lp5327
S'As'
p5328
aS'Qd'
p5329
atp5330
Rp5331
F0.645
sg1
((lp5332
S'Qd'
p5333
aS'9d'
p5334
atp5335
Rp5336
F0.579
sg1
((lp5337
S'8s'
p5338
aS'Ts'
p5339
atp5340
Rp5341
F0.526
sg1
((lp5342
S'Qc'
p5343
aS'As'
p5344
atp5345
Rp5346
F0.645
sg1
((lp5347
S'9c'
p5348
aS'Ts'
p5349
atp5350
Rp5351
F0.517
sg1
((lp5352
S'Ac'
p5353
aS'8d'
p5354
atp5355
Rp5356
F0.601
sg1
((lp5357
S'Qs'
p5358
aS'6s'
p5359
atp5360
Rp5361
F0.5379999999999999
sg1
((lp5362
S'3s'
p5363
aS'Td'
p5364
atp5365
Rp5366
F0.424
sg1
((lp5367
S'Qc'
p5368
aS'Td'
p5369
atp5370
Rp5371
F0.574
sg1
((lp5372
S'7s'
p5373
aS'Ts'
p5374
atp5375
Rp5376
F0.51
sg1
((lp5377
S'9h'
p5378
aS'2c'
p5379
atp5380
Rp5381
F0.389
sg1
((lp5382
S'Jh'
p5383
aS'4c'
p5384
atp5385
Rp5386
F0.461
sg1
((lp5387
S'7s'
p5388
aS'5c'
p5389
atp5390
Rp5391
F0.408
sg1
((lp5392
S'Jd'
p5393
aS'Qh'
p5394
atp5395
Rp5396
F0.5820000000000001
sg1
((lp5397
S'8c'
p5398
aS'Jh'
p5399
atp5400
Rp5401
F0.517
sg1
((lp5402
S'9d'
p5403
aS'Th'
p5404
atp5405
Rp5406
F0.517
sg1
((lp5407
S'Qs'
p5408
aS'5c'
p5409
atp5410
Rp5411
F0.502
sg1
((lp5412
S'3s'
p5413
aS'4s'
p5414
atp5415
Rp5416
F0.38
sg1
((lp5417
S'Tc'
p5418
aS'4s'
p5419
atp5420
Rp5421
F0.434
sg1
((lp5422
S'Js'
p5423
aS'2c'
p5424
atp5425
Rp5426
F0.44
sg1
((lp5427
S'5d'
p5428
aS'9d'
p5429
atp5430
Rp5431
F0.45899999999999996
sg1
((lp5432
S'5d'
p5433
aS'Ts'
p5434
atp5435
Rp5436
F0.442
sg1
((lp5437
S'7c'
p5438
aS'6d'
p5439
atp5440
Rp5441
F0.42700000000000005
sg1
((lp5442
S'Qd'
p5443
aS'8d'
p5444
atp5445
Rp5446
F0.562
sg1
((lp5447
S'3h'
p5448
aS'2s'
p5449
atp5450
Rp5451
F0.312
sg1
((lp5452
S'8d'
p5453
aS'Js'
p5454
atp5455
Rp5456
F0.517
sg1
((lp5457
S'4s'
p5458
aS'4h'
p5459
atp5460
Rp5461
F0.57
sg1
((lp5462
S'Jd'
p5463
aS'6c'
p5464
atp5465
Rp5466
F0.479
sg1
((lp5467
S'5s'
p5468
aS'4h'
p5469
atp5470
Rp5471
F0.379
sg1
((lp5472
S'8c'
p5473
aS'Kh'
p5474
atp5475
Rp5476
F0.563
sg1
((lp5477
S'3c'
p5478
aS'Js'
p5479
atp5480
Rp5481
F0.45
sg1
((lp5482
S'Td'
p5483
aS'5c'
p5484
atp5485
Rp5486
F0.442
sg1
((lp5487
S'As'
p5488
aS'Js'
p5489
atp5490
Rp5491
F0.654
sg1
((lp5492
S'8s'
p5493
aS'2s'
p5494
atp5495
Rp5496
F0.40299999999999997
sg1
((lp5497
S'5d'
p5498
aS'Th'
p5499
atp5500
Rp5501
F0.442
sg1
((lp5502
S'Jh'
p5503
aS'6d'
p5504
atp5505
Rp5506
F0.479
sg1
((lp5507
S'3c'
p5508
aS'5s'
p5509
atp5510
Rp5511
F0.358
sg1
((lp5512
S'4s'
p5513
aS'Th'
p5514
atp5515
Rp5516
F0.434
sg1
((lp5517
S'9h'
p5518
aS'9d'
p5519
atp5520
Rp5521
F0.721
sg1
((lp5522
S'Jd'
p5523
aS'4d'
p5524
atp5525
Rp5526
F0.49
sg1
((lp5527
S'Jh'
p5528
aS'2c'
p5529
atp5530
Rp5531
F0.44
sg1
((lp5532
S'5h'
p5533
aS'Th'
p5534
atp5535
Rp5536
F0.47200000000000003
sg1
((lp5537
S'Ad'
p5538
aS'4h'
p5539
atp5540
Rp5541
F0.564
sg1
((lp5542
S'Jd'
p5543
aS'2h'
p5544
atp5545
Rp5546
F0.44
sg1
((lp5547
S'7d'
p5548
aS'8d'
p5549
atp5550
Rp5551
F0.48200000000000004
sg1
((lp5552
S'Qs'
p5553
aS'7c'
p5554
atp5555
Rp5556
F0.519
sg1
((lp5557
S'6d'
p5558
aS'Js'
p5559
atp5560
Rp5561
F0.479
sg1
((lp5562
S'3h'
p5563
aS'4c'
p5564
atp5565
Rp5566
F0.344
sg1
((lp5567
S'6s'
p5568
aS'Tc'
p5569
atp5570
Rp5571
F0.46299999999999997
sg1
((lp5572
S'3s'
p5573
aS'6s'
p5574
atp5575
Rp5576
F0.39399999999999996
sg1
((lp5577
S'6s'
p5578
aS'7c'
p5579
atp5580
Rp5581
F0.42700000000000005
sg1
((lp5582
S'9h'
p5583
aS'Qs'
p5584
atp5585
Rp5586
F0.555
sg1
((lp5587
S'Ks'
p5588
aS'7s'
p5589
atp5590
Rp5591
F0.578
sg1
((lp5592
S'4d'
p5593
aS'6s'
p5594
atp5595
Rp5596
F0.38
sg1
((lp5597
S'4d'
p5598
aS'Ad'
p5599
atp5600
Rp5601
F0.589
sg1
((lp5602
S'6s'
p5603
aS'7d'
p5604
atp5605
Rp5606
F0.42700000000000005
sg1
((lp5607
S'7c'
p5608
aS'Qd'
p5609
atp5610
Rp5611
F0.519
sg1
((lp5612
S'9c'
p5613
aS'Th'
p5614
atp5615
Rp5616
F0.517
sg1
((lp5617
S'Qc'
p5618
aS'6s'
p5619
atp5620
Rp5621
F0.511
sg1
((lp5622
S'2d'
p5623
aS'As'
p5624
atp5625
Rp5626
F0.546
sg1
((lp5627
S'Ac'
p5628
aS'Qc'
p5629
atp5630
Rp5631
F0.6609999999999999
sg1
((lp5632
S'8h'
p5633
aS'4s'
p5634
atp5635
Rp5636
F0.396
sg1
((lp5637
S'4d'
p5638
aS'Kh'
p5639
atp5640
Rp5641
F0.521
sg1
((lp5642
S'2h'
p5643
aS'Tc'
p5644
atp5645
Rp5646
F0.415
sg1
((lp5647
S'9s'
p5648
aS'8d'
p5649
atp5650
Rp5651
F0.484
sg1
((lp5652
S'7c'
p5653
aS'2c'
p5654
atp5655
Rp5656
F0.381
sg1
((lp5657
S'2d'
p5658
aS'5s'
p5659
atp5660
Rp5661
F0.33899999999999997
sg1
((lp5662
S'9h'
p5663
aS'Td'
p5664
atp5665
Rp5666
F0.517
sg1
((lp5667
S'2d'
p5668
aS'2h'
p5669
atp5670
Rp5671
F0.503
sg1
((lp5672
S'Ah'
p5673
aS'6d'
p5674
atp5675
Rp5676
F0.578
sg1
((lp5677
S'8c'
p5678
aS'Jc'
p5679
atp5680
Rp5681
F0.542
sg1
((lp5682
S'8h'
p5683
aS'3d'
p5684
atp5685
Rp5686
F0.375
sg1
((lp5687
S'4s'
p5688
aS'2s'
p5689
atp5690
Rp5691
F0.363
sg1
((lp5692
S'Kc'
p5693
aS'Kd'
p5694
atp5695
Rp5696
F0.8240000000000001
sg1
((lp5697
S'6h'
p5698
aS'9h'
p5699
atp5700
Rp5701
F0.47700000000000004
sg1
((lp5702
S'2h'
p5703
aS'Th'
p5704
atp5705
Rp5706
F0.447
sg1
((lp5707
S'6h'
p5708
aS'5h'
p5709
atp5710
Rp5711
F0.43200000000000005
sg1
((lp5712
S'2d'
p5713
aS'7h'
p5714
atp5715
Rp5716
F0.34600000000000003
sg1
((lp5717
S'8s'
p5718
aS'Qd'
p5719
atp5720
Rp5721
F0.5379999999999999
sg1
((lp5722
S'2d'
p5723
aS'5h'
p5724
atp5725
Rp5726
F0.33899999999999997
sg1
((lp5727
S'Ad'
p5728
aS'4c'
p5729
atp5730
Rp5731
F0.564
sg1
((lp5732
S'Jd'
p5733
aS'Js'
p5734
atp5735
Rp5736
F0.775
sg1
((lp5737
S'5h'
p5738
aS'Js'
p5739
atp5740
Rp5741
F0.47100000000000003
sg1
((lp5742
S'Kh'
p5743
aS'7s'
p5744
atp5745
Rp5746
F0.5539999999999999
sg1
((lp5747
S'Ks'
p5748
aS'Ad'
p5749
atp5750
Rp5751
F0.654
sg1
((lp5752
S'2d'
p5753
aS'9c'
p5754
atp5755
Rp5756
F0.389
sg1
((lp5757
S'9s'
p5758
aS'5h'
p5759
atp5760
Rp5761
F0.429
sg1
((lp5762
S'Td'
p5763
aS'Js'
p5764
atp5765
Rp5766
F0.5539999999999999
sg1
((lp5767
S'Qh'
p5768
aS'Qc'
p5769
atp5770
Rp5771
F0.799
sg1
((lp5772
S'Td'
p5773
aS'Th'
p5774
atp5775
Rp5776
F0.7509999999999999
sg1
((lp5777
S'4c'
p5778
aS'5h'
p5779
atp5780
Rp5781
F0.379
sg1
((lp5782
S'6s'
p5783
aS'5c'
p5784
atp5785
Rp5786
F0.401
sg1
((lp5787
S'Ac'
p5788
aS'4d'
p5789
atp5790
Rp5791
F0.564
sg1
((lp5792
S'3h'
p5793
aS'5h'
p5794
atp5795
Rp5796
F0.39299999999999996
sg1
((lp5797
S'Qd'
p5798
aS'4h'
p5799
atp5800
Rp5801
F0.49
sg1
((lp5802
S'3c'
p5803
aS'Ts'
p5804
atp5805
Rp5806
F0.424
sg1
((lp5807
S'6s'
p5808
aS'6c'
p5809
atp5810
Rp5811
F0.633
sg1
((lp5812
S'5s'
p5813
aS'3d'
p5814
atp5815
Rp5816
F0.358
sg1
((lp5817
S'9d'
p5818
aS'Jc'
p5819
atp5820
Rp5821
F0.534
sg1
((lp5822
S'8s'
p5823
aS'Ac'
p5824
atp5825
Rp5826
F0.601
sg1
((lp5827
S'6d'
p5828
aS'5s'
p5829
atp5830
Rp5831
F0.401
sg1
((lp5832
S'8s'
p5833
aS'7s'
p5834
atp5835
Rp5836
F0.48200000000000004
sg1
((lp5837
S'8c'
p5838
aS'7h'
p5839
atp5840
Rp5841
F0.455
sg1
((lp5842
S'Js'
p5843
aS'Jc'
p5844
atp5845
Rp5846
F0.775
sg1
((lp5847
S'8h'
p5848
aS'Js'
p5849
atp5850
Rp5851
F0.517
sg1
((lp5852
S'Ts'
p5853
aS'8d'
p5854
atp5855
Rp5856
F0.5
sg1
((lp5857
S'9h'
p5858
aS'5h'
p5859
atp5860
Rp5861
F0.45899999999999996
sg1
((lp5862
S'As'
p5863
aS'2s'
p5864
atp5865
Rp5866
F0.57
sg1
((lp5867
S'Td'
p5868
aS'Qd'
p5869
atp5870
Rp5871
F0.595
sg1
((lp5872
S'Ah'
p5873
aS'7c'
p5874
atp5875
Rp5876
F0.591
sg1
((lp5877
S'Ks'
p5878
aS'Ac'
p5879
atp5880
Rp5881
F0.654
sg1
((lp5882
S'8c'
p5883
aS'5s'
p5884
atp5885
Rp5886
F0.41700000000000004
sg1
((lp5887
S'2d'
p5888
aS'3d'
p5889
atp5890
Rp5891
F0.35100000000000003
sg1
((lp5892
S'Qc'
p5893
aS'4h'
p5894
atp5895
Rp5896
F0.49
sg1
((lp5897
S'3s'
p5898
aS'9h'
p5899
atp5900
Rp5901
F0.39899999999999997
sg1
((lp5902
S'Qc'
p5903
aS'Kd'
p5904
atp5905
Rp5906
F0.614
sg1
((lp5907
S'3h'
p5908
aS'Jh'
p5909
atp5910
Rp5911
F0.479
sg1
((lp5912
S'6c'
p5913
aS'5c'
p5914
atp5915
Rp5916
F0.43200000000000005
sg1
((lp5917
S'Qs'
p5918
aS'6c'
p5919
atp5920
Rp5921
F0.511
sg1
((lp5922
S'9h'
p5923
aS'2s'
p5924
atp5925
Rp5926
F0.389
sg1
((lp5927
S'3c'
p5928
aS'9h'
p5929
atp5930
Rp5931
F0.39899999999999997
sg1
((lp5932
S'5d'
p5933
aS'Jc'
p5934
atp5935
Rp5936
F0.47100000000000003
sg1
((lp5937
S'7c'
p5938
aS'Ad'
p5939
atp5940
Rp5941
F0.591
sg1
((lp5942
S'9s'
p5943
aS'Tc'
p5944
atp5945
Rp5946
F0.517
sg1
((lp5947
S'4c'
p5948
aS'Jc'
p5949
atp5950
Rp5951
F0.49
sg1
((lp5952
S'8s'
p5953
aS'Ad'
p5954
atp5955
Rp5956
F0.601
sg1
((lp5957
S'Ac'
p5958
aS'3h'
p5959
atp5960
Rp5961
F0.556
sg1
((lp5962
S'6c'
p5963
aS'9d'
p5964
atp5965
Rp5966
F0.449
sg1
((lp5967
S'Qh'
p5968
aS'9h'
p5969
atp5970
Rp5971
F0.579
sg1
((lp5972
S'Kc'
p5973
aS'Qh'
p5974
atp5975
Rp5976
F0.614
sg1
((lp5977
S'6s'
p5978
aS'5h'
p5979
atp5980
Rp5981
F0.401
sg1
((lp5982
S'Qh'
p5983
aS'Kd'
p5984
atp5985
Rp5986
F0.614
sg1
((lp5987
S'Ac'
p5988
aS'4s'
p5989
atp5990
Rp5991
F0.564
sg1
((lp5992
S'7d'
p5993
aS'Ts'
p5994
atp5995
Rp5996
F0.48200000000000004
sg1
((lp5997
S'7s'
p5998
aS'Ad'
p5999
atp6000
Rp6001
F0.591
sg1
((lp6002
S'8s'
p6003
aS'6d'
p6004
atp6005
Rp6006
F0.436
sg1
((lp6007
S'2d'
p6008
aS'Td'
p6009
atp6010
Rp6011
F0.447
sg1
((lp6012
S'5d'
p6013
aS'7c'
p6014
atp6015
Rp6016
F0.408
sg1
((lp6017
S'3c'
p6018
aS'9s'
p6019
atp6020
Rp6021
F0.39899999999999997
sg1
((lp6022
S'7c'
p6023
aS'Kd'
p6024
atp6025
Rp6026
F0.5539999999999999
sg1
((lp6027
S'6c'
p6028
aS'Kh'
p6029
atp6030
Rp6031
F0.5429999999999999
sg1
((lp6032
S'2h'
p6033
aS'5h'
p6034
atp6035
Rp6036
F0.375
sg1
((lp6037
S'Jd'
p6038
aS'9d'
p6039
atp6040
Rp6041
F0.5579999999999999
sg1
((lp6042
S'3s'
p6043
aS'4d'
p6044
atp6045
Rp6046
F0.344
sg1
((lp6047
S'5d'
p6048
aS'6d'
p6049
atp6050
Rp6051
F0.43200000000000005
sg1
((lp6052
S'As'
p6053
aS'Ts'
p6054
atp6055
Rp6056
F0.647
sg1
((lp6057
S'Td'
p6058
aS'4c'
p6059
atp6060
Rp6061
F0.434
sg1
((lp6062
S'9d'
p6063
aS'Js'
p6064
atp6065
Rp6066
F0.534
sg1
((lp6067
S'4c'
p6068
aS'Js'
p6069
atp6070
Rp6071
F0.461
sg1
((lp6072
S'Td'
p6073
aS'4h'
p6074
atp6075
Rp6076
F0.434
sg1
((lp6077
S'2d'
p6078
aS'Tc'
p6079
atp6080
Rp6081
F0.415
sg1
((lp6082
S'Kc'
p6083
aS'Qc'
p6084
atp6085
Rp6086
F0.634
sg1
((lp6087
S'Th'
p6088
aS'8d'
p6089
atp6090
Rp6091
F0.5
sg1
((lp6092
S'Qs'
p6093
aS'Jc'
p6094
atp6095
Rp6096
F0.5820000000000001
sg1
((lp6097
S'Kh'
p6098
aS'7c'
p6099
atp6100
Rp6101
F0.5539999999999999
sg1
((lp6102
S'9h'
p6103
aS'Ad'
p6104
atp6105
Rp6106
F0.609
sg1
((lp6107
S'Ac'
p6108
aS'Kh'
p6109
atp6110
Rp6111
F0.654
sg1
((lp6112
S'Td'
p6113
aS'Ad'
p6114
atp6115
Rp6116
F0.647
sg1
((lp6117
S'7c'
p6118
aS'3d'
p6119
atp6120
Rp6121
F0.366
sg1
((lp6122
S'6s'
p6123
aS'2s'
p6124
atp6125
Rp6126
F0.375
sg1
((lp6127
S'2d'
p6128
aS'4s'
p6129
atp6130
Rp6131
F0.325
sg1
((lp6132
S'6c'
p6133
aS'Tc'
p6134
atp6135
Rp6136
F0.49200000000000005
sg1
((lp6137
S'9h'
p6138
aS'Qc'
p6139
atp6140
Rp6141
F0.555
sg1
((lp6142
S'Ac'
p6143
aS'Th'
p6144
atp6145
Rp6146
F0.629
sg1
((lp6147
S'4d'
p6148
aS'7h'
p6149
atp6150
Rp6151
F0.386
sg1
((lp6152
S'9h'
p6153
aS'7h'
p6154
atp6155
Rp6156
F0.495
sg1
((lp6157
S'Qs'
p6158
aS'Ac'
p6159
atp6160
Rp6161
F0.645
sg1
((lp6162
S'Kh'
p6163
aS'2c'
p6164
atp6165
Rp6166
F0.502
sg1
((lp6167
S'5c'
p6168
aS'2s'
p6169
atp6170
Rp6171
F0.33899999999999997
sg1
((lp6172
S'9h'
p6173
aS'4c'
p6174
atp6175
Rp6176
F0.40700000000000003
sg1
((lp6177
S'8h'
p6178
aS'6s'
p6179
atp6180
Rp6181
F0.436
sg1
((lp6182
S'Jc'
p6183
aS'2s'
p6184
atp6185
Rp6186
F0.44
sg1
((lp6187
S'Ad'
p6188
aS'4s'
p6189
atp6190
Rp6191
F0.564
sg1
((lp6192
S'Ks'
p6193
aS'8c'
p6194
atp6195
Rp6196
F0.563
sg1
((lp6197
S'Td'
p6198
aS'7s'
p6199
atp6200
Rp6201
F0.48200000000000004
sg1
((lp6202
S'3h'
p6203
aS'2h'
p6204
atp6205
Rp6206
F0.35100000000000003
sg1
((lp6207
S'8s'
p6208
aS'Tc'
p6209
atp6210
Rp6211
F0.5
sg1
((lp6212
S'5d'
p6213
aS'3d'
p6214
atp6215
Rp6216
F0.39299999999999996
sg1
((lp6217
S'3h'
p6218
aS'Qd'
p6219
atp6220
Rp6221
F0.479
sg1
((lp6222
S'6h'
p6223
aS'7h'
p6224
atp6225
Rp6226
F0.457
sg1
((lp6227
S'Qc'
p6228
aS'Tc'
p6229
atp6230
Rp6231
F0.595
sg1
((lp6232
S'Qs'
p6233
aS'Jh'
p6234
atp6235
Rp6236
F0.5820000000000001
sg1
((lp6237
S'4s'
p6238
aS'2c'
p6239
atp6240
Rp6241
F0.325
sg1
((lp6242
S'Qh'
p6243
aS'5h'
p6244
atp6245
Rp6246
F0.529
sg1
((lp6247
S'Ac'
p6248
aS'6c'
p6249
atp6250
Rp6251
F0.6
sg1
((lp6252
S'6d'
p6253
aS'Kd'
p6254
atp6255
Rp6256
F0.568
sg1
((lp6257
S'Ad'
p6258
aS'Tc'
p6259
atp6260
Rp6261
F0.629
sg1
((lp6262
S'9d'
p6263
aS'8d'
p6264
atp6265
Rp6266
F0.511
sg1
((lp6267
S'Kc'
p6268
aS'Jh'
p6269
atp6270
Rp6271
F0.606
sg1
((lp6272
S'9c'
p6273
aS'6s'
p6274
atp6275
Rp6276
F0.449
sg1
((lp6277
S'8c'
p6278
aS'2s'
p6279
atp6280
Rp6281
F0.368
sg1
((lp6282
S'7s'
p6283
aS'5h'
p6284
atp6285
Rp6286
F0.408
sg1
((lp6287
S'8s'
p6288
aS'7d'
p6289
atp6290
Rp6291
F0.455
sg1
((lp6292
S'Jd'
p6293
aS'Kd'
p6294
atp6295
Rp6296
F0.626
sg1
((lp6297
S'4d'
p6298
aS'Th'
p6299
atp6300
Rp6301
F0.434
sg1
((lp6302
S'9s'
p6303
aS'6c'
p6304
atp6305
Rp6306
F0.449
sg1
((lp6307
S'2d'
p6308
aS'Qs'
p6309
atp6310
Rp6311
F0.47
sg1
((lp6312
S'9s'
p6313
aS'8h'
p6314
atp6315
Rp6316
F0.484
sg1
((lp6317
S'Kc'
p6318
aS'3c'
p6319
atp6320
Rp6321
F0.5379999999999999
sg1
((lp6322
S'4h'
p6323
aS'3d'
p6324
atp6325
Rp6326
F0.344
sg1
((lp6327
S'Kh'
p6328
aS'6d'
p6329
atp6330
Rp6331
F0.5429999999999999
sg1
((lp6332
S'2d'
p6333
aS'7s'
p6334
atp6335
Rp6336
F0.34600000000000003
sg1
((lp6337
S'Qc'
p6338
aS'7h'
p6339
atp6340
Rp6341
F0.519
sg1
((lp6342
S'Ah'
p6343
aS'2c'
p6344
atp6345
Rp6346
F0.546
sg1
((lp6347
S'3s'
p6348
aS'Jd'
p6349
atp6350
Rp6351
F0.45
sg1
((lp6352
S'As'
p6353
aS'6d'
p6354
atp6355
Rp6356
F0.578
sg1
((lp6357
S'Qh'
p6358
aS'8h'
p6359
atp6360
Rp6361
F0.562
sg1
((lp6362
S'8c'
p6363
aS'7s'
p6364
atp6365
Rp6366
F0.455
sg1
((lp6367
S'3h'
p6368
aS'4s'
p6369
atp6370
Rp6371
F0.344
sg1
((lp6372
S'8d'
p6373
aS'Jc'
p6374
atp6375
Rp6376
F0.517
sg1
((lp6377
S'2d'
p6378
aS'8s'
p6379
atp6380
Rp6381
F0.368
sg1
((lp6382
S'Ks'
p6383
aS'5c'
p6384
atp6385
Rp6386
F0.5329999999999999
sg1
((lp6387
S'5s'
p6388
aS'Js'
p6389
atp6390
Rp6391
F0.5
sg1
((lp6392
S'7d'
p6393
aS'5h'
p6394
atp6395
Rp6396
F0.408
sg1
((lp6397
S'4d'
p6398
aS'4s'
p6399
atp6400
Rp6401
F0.57
sg1
((lp6402
S'3c'
p6403
aS'6c'
p6404
atp6405
Rp6406
F0.39399999999999996
sg1
((lp6407
S'6s'
p6408
aS'2c'
p6409
atp6410
Rp6411
F0.34
sg1
((lp6412
S'8h'
p6413
aS'4h'
p6414
atp6415
Rp6416
F0.42700000000000005
sg1
((lp6417
S'4d'
p6418
aS'9d'
p6419
atp6420
Rp6421
F0.43799999999999994
sg1
((lp6422
S'Ac'
p6423
aS'Jc'
p6424
atp6425
Rp6426
F0.654
sg1
((lp6427
S'5d'
p6428
aS'2s'
p6429
atp6430
Rp6431
F0.33899999999999997
sg1
((lp6432
S'Kc'
p6433
aS'6d'
p6434
atp6435
Rp6436
F0.5429999999999999
sg1
((lp6437
S'5d'
p6438
aS'Ad'
p6439
atp6440
Rp6441
F0.599
sg1
((lp6442
S'8c'
p6443
aS'8s'
p6444
atp6445
Rp6446
F0.691
sg1
((lp6447
S'Qc'
p6448
aS'4c'
p6449
atp6450
Rp6451
F0.517
sg1
((lp6452
S'Qc'
p6453
aS'7c'
p6454
atp6455
Rp6456
F0.545
sg1
((lp6457
S'6s'
p6458
aS'Jh'
p6459
atp6460
Rp6461
F0.479
sg1
((lp6462
S'8c'
p6463
aS'Ad'
p6464
atp6465
Rp6466
F0.601
sg1
((lp6467
S'3s'
p6468
aS'5h'
p6469
atp6470
Rp6471
F0.358
sg1
((lp6472
S'Ac'
p6473
aS'9c'
p6474
atp6475
Rp6476
F0.63
sg1
((lp6477
S'5h'
p6478
aS'5s'
p6479
atp6480
Rp6481
F0.603
sg1
((lp6482
S'Ad'
p6483
aS'3d'
p6484
atp6485
Rp6486
F0.58
sg1
((lp6487
S'4s'
p6488
aS'5s'
p6489
atp6490
Rp6491
F0.41100000000000003
sg1
((lp6492
S'9s'
p6493
aS'5s'
p6494
atp6495
Rp6496
F0.45899999999999996
sg1
((lp6497
S'Td'
p6498
aS'7d'
p6499
atp6500
Rp6501
F0.51
sg1
((lp6502
S'Qh'
p6503
aS'9d'
p6504
atp6505
Rp6506
F0.555
sg1
((lp6507
S'6c'
p6508
aS'4c'
p6509
atp6510
Rp6511
F0.414
sg1
((lp6512
S'Qs'
p6513
aS'Kd'
p6514
atp6515
Rp6516
F0.614
sg1
((lp6517
S'Qc'
p6518
aS'Jh'
p6519
atp6520
Rp6521
F0.5820000000000001
sg1
((lp6522
S'Kc'
p6523
aS'Js'
p6524
atp6525
Rp6526
F0.606
sg1
((lp6527
S'Qs'
p6528
aS'8d'
p6529
atp6530
Rp6531
F0.5379999999999999
sg1
((lp6532
S'8d'
p6533
aS'7h'
p6534
atp6535
Rp6536
F0.455
sg1
((lp6537
S'Js'
p6538
aS'Kd'
p6539
atp6540
Rp6541
F0.606
sg1
((lp6542
S'Qd'
p6543
aS'5c'
p6544
atp6545
Rp6546
F0.502
sg1
((lp6547
S'Ks'
p6548
aS'Jh'
p6549
atp6550
Rp6551
F0.606
sg1
((lp6552
S'9s'
p6553
aS'6s'
p6554
atp6555
Rp6556
F0.47700000000000004
sg1
((lp6557
S'7d'
p6558
aS'3d'
p6559
atp6560
Rp6561
F0.4
sg1
((lp6562
S'Ks'
p6563
aS'9h'
p6564
atp6565
Rp6566
F0.58
sg1
((lp6567
S'2d'
p6568
aS'8d'
p6569
atp6570
Rp6571
F0.40299999999999997
sg1
((lp6572
S'9c'
p6573
aS'4h'
p6574
atp6575
Rp6576
F0.40700000000000003
sg1
((lp6577
S'6h'
p6578
aS'Qc'
p6579
atp6580
Rp6581
F0.511
sg1
((lp6582
S'3s'
p6583
aS'5d'
p6584
atp6585
Rp6586
F0.358
sg1
((lp6587
S'8s'
p6588
aS'5h'
p6589
atp6590
Rp6591
F0.41700000000000004
sg1
((lp6592
S'As'
p6593
aS'3d'
p6594
atp6595
Rp6596
F0.556
sg1
((lp6597
S'6h'
p6598
aS'8d'
p6599
atp6600
Rp6601
F0.436
sg1
((lp6602
S'Jd'
p6603
aS'Td'
p6604
atp6605
Rp6606
F0.575
sg1
((lp6607
S'Ks'
p6608
aS'7c'
p6609
atp6610
Rp6611
F0.5539999999999999
sg1
((lp6612
S'7s'
p6613
aS'Qd'
p6614
atp6615
Rp6616
F0.519
sg1
((lp6617
S'Qh'
p6618
aS'2c'
p6619
atp6620
Rp6621
F0.47
sg1
((lp6622
S'Ks'
p6623
aS'2d'
p6624
atp6625
Rp6626
F0.502
sg1
((lp6627
S'2h'
p6628
aS'Js'
p6629
atp6630
Rp6631
F0.44
s.